---
triple:          'arm64-apple-darwin'
binary-path:     '/Users/gregoireh/projects/fsk/target/debug/deps/libfsk.dylib'
relocations:
  - { offset: 0x1E, size: 0x8, addend: 0x0, symName: '__ZN4pyo38instance39Borrowed$LT$pyo3..types..any..PyAny$GT$15from_ptr_or_err17h6b8b044b0b4fdd04E', symObjAddr: 0x0, symBinAddr: 0x878, symSize: 0x38 }
  - { offset: 0x91F, size: 0x8, addend: 0x0, symName: '__ZN4pyo38instance39Borrowed$LT$pyo3..types..any..PyAny$GT$15from_ptr_or_err17h6b8b044b0b4fdd04E', symObjAddr: 0x0, symBinAddr: 0x878, symSize: 0x38 }
  - { offset: 0x97B, size: 0x8, addend: 0x0, symName: _PyInit__rs, symObjAddr: 0x0, symBinAddr: 0x8B0, symSize: 0x34 }
  - { offset: 0x9A9, size: 0x8, addend: 0x0, symName: _PYO3_INTROSPECTION_1_3257156033444098223, symObjAddr: 0xD4, symBinAddr: 0x4C340, symSize: 0x0 }
  - { offset: 0x9C0, size: 0x8, addend: 0x0, symName: __ZN3fsk2py13python_module9_PYO3_DEF17h10f44f2543fe88f9E, symObjAddr: 0x148, symBinAddr: 0x6C348, symSize: 0x0 }
  - { offset: 0x9DF, size: 0x8, addend: 0x0, symName: __ZN3fsk2py13python_module9_PYO3_DEF5SLOTS17h29722d9be3225f49E, symObjAddr: 0x1C8, symBinAddr: 0x6C3C8, symSize: 0x0 }
  - { offset: 0x9EC, size: 0x8, addend: 0x0, symName: __ZN3fsk2py13python_module9_PYO3_DEF18__pyo3_module_exec17h040769328d4133abE, symObjAddr: 0x34, symBinAddr: 0x8E4, symSize: 0x3C }
  - { offset: 0xA19, size: 0x8, addend: 0x0, symName: _PyInit__rs, symObjAddr: 0x0, symBinAddr: 0x8B0, symSize: 0x34 }
  - { offset: 0x1D8A, size: 0x8, addend: 0x0, symName: '__ZN3fsk2py52_$LT$impl$u20$fsk..py..python_module..ModuleExec$GT$18__pyo3_module_exec17hfcdb331350c8eee7E', symObjAddr: 0x70, symBinAddr: 0x920, symSize: 0x44 }
  - { offset: 0x1DCA, size: 0x8, addend: 0x0, symName: __ZN4pyo310conversion15IntoPyObjectExt22into_pyobject_or_pyerr17h180718811e82b8ffE, symObjAddr: 0x0, symBinAddr: 0x964, symSize: 0x44 }
  - { offset: 0x1EA3, size: 0x8, addend: 0x0, symName: __ZN4pyo310conversion15IntoPyObjectExt22into_pyobject_or_pyerr17h180718811e82b8ffE, symObjAddr: 0x0, symBinAddr: 0x964, symSize: 0x44 }
  - { offset: 0x2782, size: 0x8, addend: 0x0, symName: __ZN4pyo35impl_5panic9PanicTrap3new17h33500a8dcf07fe0cE, symObjAddr: 0x0, symBinAddr: 0x9A8, symSize: 0x18 }
  - { offset: 0x2811, size: 0x8, addend: 0x0, symName: __ZN4pyo35impl_5panic9PanicTrap3new17h33500a8dcf07fe0cE, symObjAddr: 0x0, symBinAddr: 0x9A8, symSize: 0x18 }
  - { offset: 0x2833, size: 0x8, addend: 0x0, symName: __ZN4pyo35impl_5panic9PanicTrap6disarm17h8b4e219374cc08b7E, symObjAddr: 0x18, symBinAddr: 0x9C0, symSize: 0x28 }
  - { offset: 0x2873, size: 0x8, addend: 0x0, symName: '__ZN87_$LT$$BP$mut$u20$pyo3_ffi..object..PyObject$u20$as$u20$pyo3..ffi_ptr_ext..FfiPtrExt$GT$22assume_borrowed_or_err17h1df7e46cae439e15E', symObjAddr: 0x0, symBinAddr: 0x9E8, symSize: 0x24 }
  - { offset: 0x294C, size: 0x8, addend: 0x0, symName: '__ZN87_$LT$$BP$mut$u20$pyo3_ffi..object..PyObject$u20$as$u20$pyo3..ffi_ptr_ext..FfiPtrExt$GT$22assume_borrowed_or_err17h1df7e46cae439e15E', symObjAddr: 0x0, symBinAddr: 0x9E8, symSize: 0x24 }
  - { offset: 0x31C8, size: 0x8, addend: 0x0, symName: '__ZN50_$LT$T$u20$as$u20$core..convert..Into$LT$U$GT$$GT$4into17hf9e2115f98e7ea83E', symObjAddr: 0x0, symBinAddr: 0xA0C, symSize: 0x24 }
  - { offset: 0x32A1, size: 0x8, addend: 0x0, symName: '__ZN50_$LT$T$u20$as$u20$core..convert..Into$LT$U$GT$$GT$4into17hf9e2115f98e7ea83E', symObjAddr: 0x0, symBinAddr: 0xA0C, symSize: 0x24 }
  - { offset: 0x35B9, size: 0x8, addend: 0x0, symName: '__ZN153_$LT$core..result..Result$LT$T$C$F$GT$$u20$as$u20$core..ops..try_trait..FromResidual$LT$core..result..Result$LT$core..convert..Infallible$C$E$GT$$GT$$GT$13from_residual17h033264b4e0a0bad9E', symObjAddr: 0x0, symBinAddr: 0xA30, symSize: 0x6C }
  - { offset: 0x3692, size: 0x8, addend: 0x0, symName: '__ZN153_$LT$core..result..Result$LT$T$C$F$GT$$u20$as$u20$core..ops..try_trait..FromResidual$LT$core..result..Result$LT$core..convert..Infallible$C$E$GT$$GT$$GT$13from_residual17h033264b4e0a0bad9E', symObjAddr: 0x0, symBinAddr: 0xA30, symSize: 0x6C }
  - { offset: 0x36FF, size: 0x8, addend: 0x0, symName: '__ZN79_$LT$core..result..Result$LT$T$C$E$GT$$u20$as$u20$core..ops..try_trait..Try$GT$6branch17h93cd21c63dac309aE', symObjAddr: 0x6C, symBinAddr: 0xA9C, symSize: 0x68 }
  - { offset: 0x377C, size: 0x8, addend: 0x0, symName: '__ZN79_$LT$core..result..Result$LT$T$C$E$GT$$u20$as$u20$core..ops..try_trait..Try$GT$6branch17hfa72c0d176601573E', symObjAddr: 0xD4, symBinAddr: 0xB04, symSize: 0xA0 }
  - { offset: 0x452C, size: 0x8, addend: 0x0, symName: __ZN3fsk2py13python_module17h808a0a2fdb053c8bE, symObjAddr: 0x0, symBinAddr: 0xBA4, symSize: 0x528 }
  - { offset: 0x4600, size: 0x8, addend: 0x0, symName: __ZN3fsk2py13python_module17h808a0a2fdb053c8bE, symObjAddr: 0x0, symBinAddr: 0xBA4, symSize: 0x528 }
  - { offset: 0x5101, size: 0x8, addend: 0x0, symName: __ZN4pyo35impl_10trampoline10trampoline17h1148a1689062606bE, symObjAddr: 0x0, symBinAddr: 0x10CC, symSize: 0x158 }
  - { offset: 0x51DA, size: 0x8, addend: 0x0, symName: __ZN4pyo35impl_10trampoline10trampoline17h1148a1689062606bE, symObjAddr: 0x0, symBinAddr: 0x10CC, symSize: 0x158 }
  - { offset: 0x5288, size: 0x8, addend: 0x0, symName: '__ZN4pyo35impl_10trampoline10trampoline28_$u7b$$u7b$closure$u7d$$u7d$17hd61abe40f9b85928E', symObjAddr: 0x158, symBinAddr: 0x1224, symSize: 0x2C }
  - { offset: 0x52DF, size: 0x8, addend: 0x0, symName: '__ZN4pyo35impl_10trampoline11module_exec28_$u7b$$u7b$closure$u7d$$u7d$17hb2dd29cde08ec275E', symObjAddr: 0x184, symBinAddr: 0x1250, symSize: 0x1A4 }
  - { offset: 0x5FD7, size: 0x8, addend: 0x0, symName: __ZN3std5panic12catch_unwind17h9c6375d9261e169fE, symObjAddr: 0x0, symBinAddr: 0x13F4, symSize: 0xE4 }
  - { offset: 0x6278, size: 0x8, addend: 0x0, symName: __ZN3std5panic12catch_unwind17h9c6375d9261e169fE, symObjAddr: 0x0, symBinAddr: 0x13F4, symSize: 0xE4 }
  - { offset: 0x6E4B, size: 0x8, addend: 0x0, symName: '__ZN103_$LT$pyo3..instance..Bound$LT$pyo3..types..any..PyAny$GT$$u20$as$u20$pyo3..types..any..PyAnyMethods$GT$8set_item17h76bbf9036a3fb778E', symObjAddr: 0x0, symBinAddr: 0x152C, symSize: 0x298 }
  - { offset: 0x6F29, size: 0x8, addend: 0x0, symName: '__ZN103_$LT$pyo3..instance..Bound$LT$pyo3..types..any..PyAny$GT$$u20$as$u20$pyo3..types..any..PyAnyMethods$GT$8set_item17h76bbf9036a3fb778E', symObjAddr: 0x0, symBinAddr: 0x152C, symSize: 0x298 }
  - { offset: 0x6FF8, size: 0x8, addend: 0x0, symName: '__ZN115_$LT$pyo3..instance..Bound$LT$pyo3..types..module..PyModule$GT$$u20$as$u20$pyo3..types..module..PyModuleMethods$GT$3add17hb48b6d5180bd771aE', symObjAddr: 0x298, symBinAddr: 0x17C4, symSize: 0x26C }
  - { offset: 0x7102, size: 0x8, addend: 0x0, symName: __ZN4pyo310conversion15IntoPyObjectExt22into_pyobject_or_pyerr17hafab4586dae944d4E, symObjAddr: 0x504, symBinAddr: 0x1A30, symSize: 0x48 }
  - { offset: 0x7178, size: 0x8, addend: 0x0, symName: '__ZN81_$LT$pyo3..instance..Bound$LT$T$GT$$u20$as$u20$pyo3..conversion..IntoPyObject$GT$13into_pyobject17h95a18ed83d0555deE', symObjAddr: 0x66C, symBinAddr: 0x1B98, symSize: 0x14 }
  - { offset: 0x71D7, size: 0x8, addend: 0x0, symName: '__ZN4pyo35impl_9pymethods133_$LT$impl$u20$core..convert..From$LT$pyo3..impl_..pymethods..BoundRef$LT$T$GT$$GT$$u20$for$u20$$RF$pyo3..instance..Bound$LT$T$GT$$GT$4from17hb876e7669794510eE', symObjAddr: 0x54C, symBinAddr: 0x1A78, symSize: 0x14 }
  - { offset: 0x73B8, size: 0x8, addend: 0x0, symName: '__ZN4pyo38instance17Borrowed$LT$T$GT$4cast5inner17h07705cca2817112bE', symObjAddr: 0x5F0, symBinAddr: 0x1B1C, symSize: 0x7C }
  - { offset: 0x73F6, size: 0x8, addend: 0x0, symName: '__ZN87_$LT$pyo3..instance..Bound$LT$T$GT$$u20$as$u20$pyo3..instance..BoundObject$LT$T$GT$$GT$8into_any17h5c8fc48406225d29E', symObjAddr: 0x680, symBinAddr: 0x1BAC, symSize: 0x24 }
  - { offset: 0x7CEA, size: 0x8, addend: 0x0, symName: '__ZN4pyo38instance11Py$LT$T$GT$8into_any17hd2b092ee4fbeef38E', symObjAddr: 0x560, symBinAddr: 0x1A8C, symSize: 0x30 }
  - { offset: 0x7D30, size: 0x8, addend: 0x0, symName: '__ZN4pyo38instance14Bound$LT$T$GT$8into_any17h09bbeba74ccc2e31E', symObjAddr: 0x590, symBinAddr: 0x1ABC, symSize: 0x30 }
  - { offset: 0x7D7D, size: 0x8, addend: 0x0, symName: '__ZN4pyo38instance17Borrowed$LT$T$GT$4cast17h80c9664e837f54e2E', symObjAddr: 0x5C0, symBinAddr: 0x1AEC, symSize: 0x30 }
  - { offset: 0x801E, size: 0x8, addend: 0x0, symName: '__ZN4pyo35types5float64_$LT$impl$u20$pyo3..conversion..IntoPyObject$u20$for$u20$f64$GT$13into_pyobject17h23c91aef2e54b098E', symObjAddr: 0x0, symBinAddr: 0x1BD0, symSize: 0x20 }
  - { offset: 0x80FC, size: 0x8, addend: 0x0, symName: '__ZN4pyo35types5float64_$LT$impl$u20$pyo3..conversion..IntoPyObject$u20$for$u20$f64$GT$13into_pyobject17h23c91aef2e54b098E', symObjAddr: 0x0, symBinAddr: 0x1BD0, symSize: 0x20 }
  - { offset: 0x8467, size: 0x8, addend: 0x0, symName: __ZN4pyo33err10cast_error9CastError3new17h7e244f2640fb062fE, symObjAddr: 0x0, symBinAddr: 0x1BF0, symSize: 0x1C }
  - { offset: 0x8838, size: 0x8, addend: 0x0, symName: __ZN4pyo33err10cast_error9CastError3new17h7e244f2640fb062fE, symObjAddr: 0x0, symBinAddr: 0x1BF0, symSize: 0x1C }
  - { offset: 0x8886, size: 0x8, addend: 0x0, symName: __ZN3std9panicking12catch_unwind7do_call17hf44e9e8faae9ef6dE, symObjAddr: 0x0, symBinAddr: 0x1C0C, symSize: 0x94 }
  - { offset: 0x92FA, size: 0x8, addend: 0x0, symName: __ZN3std9panicking12catch_unwind7do_call17hf44e9e8faae9ef6dE, symObjAddr: 0x0, symBinAddr: 0x1C0C, symSize: 0x94 }
  - { offset: 0x93F5, size: 0x8, addend: 0x0, symName: __ZN3std9panicking12catch_unwind8do_catch17h457108ac4ba55519E, symObjAddr: 0x94, symBinAddr: 0x1CA0, symSize: 0x70 }
  - { offset: 0x967D, size: 0x8, addend: 0x0, symName: __ZN4pyo35impl_10trampoline11module_exec17hfc65e12b594fa17fE, symObjAddr: 0x0, symBinAddr: 0x1D10, symSize: 0x34 }
  - { offset: 0x9756, size: 0x8, addend: 0x0, symName: __ZN4pyo35impl_10trampoline11module_exec17hfc65e12b594fa17fE, symObjAddr: 0x0, symBinAddr: 0x1D10, symSize: 0x34 }
  - { offset: 0xA031, size: 0x8, addend: 0x0, symName: __ZN4pyo36marker6Python15assume_attached17h231f2e354f89a61bE, symObjAddr: 0x0, symBinAddr: 0x1D44, symSize: 0x4 }
  - { offset: 0xA16D, size: 0x8, addend: 0x0, symName: __ZN4pyo36marker6Python15assume_attached17h231f2e354f89a61bE, symObjAddr: 0x0, symBinAddr: 0x1D44, symSize: 0x4 }
  - { offset: 0xA19E, size: 0x8, addend: 0x0, symName: __ZN4pyo38internal5state11AttachGuard6python17ha1be259364bc20e1E, symObjAddr: 0x0, symBinAddr: 0x1D48, symSize: 0x20 }
  - { offset: 0xA254, size: 0x8, addend: 0x0, symName: __ZN4pyo38internal5state11AttachGuard6python17ha1be259364bc20e1E, symObjAddr: 0x0, symBinAddr: 0x1D48, symSize: 0x20 }
  - { offset: 0xA773, size: 0x8, addend: 0x0, symName: '__ZN4core5array4iter94_$LT$impl$u20$core..iter..traits..collect..IntoIterator$u20$for$u20$$u5b$T$u3b$$u20$N$u5d$$GT$9into_iter17he35b573186a1f233E', symObjAddr: 0x69A0, symBinAddr: 0x39A0, symSize: 0x68 }
  - { offset: 0xD8EA, size: 0x8, addend: 0x0, symName: '__ZN50_$LT$T$u20$as$u20$core..convert..Into$LT$U$GT$$GT$4into17h2e48d039cf4ef8e5E', symObjAddr: 0xD174, symBinAddr: 0x566C, symSize: 0x24 }
  - { offset: 0xD92A, size: 0x8, addend: 0x0, symName: '__ZN50_$LT$T$u20$as$u20$core..convert..Into$LT$U$GT$$GT$4into17h4601be4c5c231cf4E', symObjAddr: 0xD198, symBinAddr: 0x5690, symSize: 0x24 }
  - { offset: 0xD992, size: 0x8, addend: 0x0, symName: '__ZN103_$LT$pyo3..instance..Bound$LT$pyo3..types..any..PyAny$GT$$u20$as$u20$pyo3..types..any..PyAnyMethods$GT$2is17h09a5901fa87d9d3fE', symObjAddr: 0x528, symBinAddr: 0x1D7C, symSize: 0xA4 }
  - { offset: 0xD9FE, size: 0x8, addend: 0x0, symName: '__ZN103_$LT$pyo3..instance..Bound$LT$pyo3..types..any..PyAny$GT$$u20$as$u20$pyo3..types..any..PyAnyMethods$GT$3str17h8dda0b1ce1a24f7aE', symObjAddr: 0x8F4, symBinAddr: 0x1E20, symSize: 0x5C }
  - { offset: 0xDA2C, size: 0x8, addend: 0x0, symName: '__ZN103_$LT$pyo3..instance..Bound$LT$pyo3..types..any..PyAny$GT$$u20$as$u20$pyo3..types..any..PyAnyMethods$GT$4repr17h3668f1626bd5f829E', symObjAddr: 0x104C, symBinAddr: 0x1E7C, symSize: 0x5C }
  - { offset: 0xDA5A, size: 0x8, addend: 0x0, symName: '__ZN103_$LT$pyo3..instance..Bound$LT$pyo3..types..any..PyAny$GT$$u20$as$u20$pyo3..types..any..PyAnyMethods$GT$5call017h540d73b0f88fe37aE', symObjAddr: 0x10A8, symBinAddr: 0x1ED8, symSize: 0x4C }
  - { offset: 0xDA88, size: 0x8, addend: 0x0, symName: '__ZN103_$LT$pyo3..instance..Bound$LT$pyo3..types..any..PyAny$GT$$u20$as$u20$pyo3..types..any..PyAnyMethods$GT$7getattr17h16b8da5ef02c24afE', symObjAddr: 0x1690, symBinAddr: 0x1F24, symSize: 0x148 }
  - { offset: 0xDB0E, size: 0x8, addend: 0x0, symName: '__ZN103_$LT$pyo3..instance..Bound$LT$pyo3..types..any..PyAny$GT$$u20$as$u20$pyo3..types..any..PyAnyMethods$GT$7getattr17hafdeed39a641b190E', symObjAddr: 0x17D8, symBinAddr: 0x206C, symSize: 0x168 }
  - { offset: 0xDB94, size: 0x8, addend: 0x0, symName: '__ZN103_$LT$pyo3..instance..Bound$LT$pyo3..types..any..PyAny$GT$$u20$as$u20$pyo3..types..any..PyAnyMethods$GT$7is_none17hbfb37cea614705e9E', symObjAddr: 0x1940, symBinAddr: 0x21D4, symSize: 0x4C }
  - { offset: 0xDBE8, size: 0x8, addend: 0x0, symName: '__ZN103_$LT$pyo3..instance..Bound$LT$pyo3..types..any..PyAny$GT$$u20$as$u20$pyo3..types..any..PyAnyMethods$GT$7setattr17hbde17845c0c892a6E', symObjAddr: 0x198C, symBinAddr: 0x2220, symSize: 0x234 }
  - { offset: 0xDCB5, size: 0x8, addend: 0x0, symName: '__ZN103_$LT$pyo3..instance..Bound$LT$pyo3..types..any..PyAny$GT$$u20$as$u20$pyo3..types..any..PyAnyMethods$GT$7setattr17hdd4bd87e6800cef4E', symObjAddr: 0x1BC0, symBinAddr: 0x2454, symSize: 0x234 }
  - { offset: 0xDD82, size: 0x8, addend: 0x0, symName: '__ZN103_$LT$pyo3..instance..Bound$LT$pyo3..types..any..PyAny$GT$$u20$as$u20$pyo3..types..any..PyAnyMethods$GT$8get_type17h884adbc0340dbfb6E', symObjAddr: 0x20A0, symBinAddr: 0x2688, symSize: 0x38 }
  - { offset: 0xDE55, size: 0x8, addend: 0x0, symName: '__ZN107_$LT$pyo3..instance..Bound$LT$pyo3..types..list..PyList$GT$$u20$as$u20$pyo3..types..list..PyListMethods$GT$6append17h16974dab70a6e1d1E', symObjAddr: 0x3138, symBinAddr: 0x26E4, symSize: 0x14C }
  - { offset: 0xDEEC, size: 0x8, addend: 0x0, symName: '__ZN111_$LT$pyo3..instance..Bound$LT$pyo3..types..bytes..PyBytes$GT$$u20$as$u20$pyo3..types..bytes..PyBytesMethods$GT$8as_bytes17h6d5add356382bcf7E', symObjAddr: 0x3424, symBinAddr: 0x2830, symSize: 0x28 }
  - { offset: 0xDF8A, size: 0x8, addend: 0x0, symName: '__ZN111_$LT$pyo3..instance..Bound$LT$pyo3..types..tuple..PyTuple$GT$$u20$as$u20$pyo3..types..tuple..PyTupleMethods$GT$3len17h80115f70e8adc50aE', symObjAddr: 0x3978, symBinAddr: 0x2858, symSize: 0x2C }
  - { offset: 0xDFB6, size: 0x8, addend: 0x0, symName: '__ZN111_$LT$pyo3..instance..Bound$LT$pyo3..types..tuple..PyTuple$GT$$u20$as$u20$pyo3..types..tuple..PyTupleMethods$GT$4iter17hb381a4bc82be2532E', symObjAddr: 0x39A4, symBinAddr: 0x2884, symSize: 0x30 }
  - { offset: 0xE05F, size: 0x8, addend: 0x0, symName: '__ZN115_$LT$pyo3..instance..Bound$LT$pyo3..types..module..PyModule$GT$$u20$as$u20$pyo3..types..module..PyModuleMethods$GT$13add_submodule17h0481360d86fd292cE', symObjAddr: 0x3D14, symBinAddr: 0x28B4, symSize: 0x28C }
  - { offset: 0xE17E, size: 0x8, addend: 0x0, symName: '__ZN115_$LT$pyo3..instance..Bound$LT$pyo3..types..module..PyModule$GT$$u20$as$u20$pyo3..types..module..PyModuleMethods$GT$3add17h1d74a53702ca40cfE', symObjAddr: 0x3FA0, symBinAddr: 0x2B40, symSize: 0x268 }
  - { offset: 0xE24B, size: 0x8, addend: 0x0, symName: '__ZN115_$LT$pyo3..instance..Bound$LT$pyo3..types..module..PyModule$GT$$u20$as$u20$pyo3..types..module..PyModuleMethods$GT$4name17hab7b33db6b281507E', symObjAddr: 0x475C, symBinAddr: 0x2DA8, symSize: 0x5C }
  - { offset: 0xE279, size: 0x8, addend: 0x0, symName: '__ZN115_$LT$pyo3..instance..Bound$LT$pyo3..types..module..PyModule$GT$$u20$as$u20$pyo3..types..module..PyModuleMethods$GT$5index17hb2e92d58e519fc5cE', symObjAddr: 0x47B8, symBinAddr: 0x2E04, symSize: 0x25C }
  - { offset: 0xE32B, size: 0x8, addend: 0x0, symName: '__ZN115_$LT$pyo3..instance..Bound$LT$pyo3..types..module..PyModule$GT$$u20$as$u20$pyo3..types..module..PyModuleMethods$GT$8gil_used17hfb0816390dd1492dE', symObjAddr: 0x4A70, symBinAddr: 0x3060, symSize: 0x18 }
  - { offset: 0xE389, size: 0x8, addend: 0x0, symName: '__ZN115_$LT$pyo3..instance..Bound$LT$pyo3..types..string..PyString$GT$$u20$as$u20$pyo3..types..string..PyStringMethods$GT$15to_string_lossy17h27d9b318213cfa90E', symObjAddr: 0x4AE4, symBinAddr: 0x3078, symSize: 0x30 }
  - { offset: 0xE3B7, size: 0x8, addend: 0x0, symName: '__ZN115_$LT$pyo3..instance..Bound$LT$pyo3..types..string..PyString$GT$$u20$as$u20$pyo3..types..string..PyStringMethods$GT$6to_cow17h29bbfc571a271f3fE', symObjAddr: 0x4B14, symBinAddr: 0x30A8, symSize: 0x30 }
  - { offset: 0xE4C6, size: 0x8, addend: 0x0, symName: '__ZN119_$LT$pyo3..instance..Bound$LT$pyo3..types..typeobject..PyType$GT$$u20$as$u20$pyo3..types..typeobject..PyTypeMethods$GT$11as_type_ptr17h1acabf57805db025E', symObjAddr: 0x5150, symBinAddr: 0x30D8, symSize: 0x24 }
  - { offset: 0xE4F2, size: 0x8, addend: 0x0, symName: '__ZN119_$LT$pyo3..instance..Bound$LT$pyo3..types..typeobject..PyType$GT$$u20$as$u20$pyo3..types..typeobject..PyTypeMethods$GT$4name17hc977e757f235b429E', symObjAddr: 0x5464, symBinAddr: 0x30FC, symSize: 0xE0 }
  - { offset: 0xE55B, size: 0x8, addend: 0x0, symName: '__ZN119_$LT$pyo3..instance..Bound$LT$pyo3..types..typeobject..PyType$GT$$u20$as$u20$pyo3..types..typeobject..PyTypeMethods$GT$8qualname17h2d16fb3b36313550E', symObjAddr: 0x5790, symBinAddr: 0x31DC, symSize: 0xE0 }
  - { offset: 0xE636, size: 0x8, addend: 0x0, symName: '__ZN127_$LT$pyo3..instance..Bound$LT$pyo3..types..traceback..PyTraceback$GT$$u20$as$u20$pyo3..types..traceback..PyTracebackMethods$GT$6format17hfdf2eaa91753cbd9E', symObjAddr: 0x5BE0, symBinAddr: 0x32BC, symSize: 0x670 }
  - { offset: 0xE96A, size: 0x8, addend: 0x0, symName: '__ZN105_$LT$pyo3..instance..Py$LT$T$GT$$u20$as$u20$core..convert..From$LT$pyo3..instance..Bound$LT$T$GT$$GT$$GT$4from17h85112583c3609265E', symObjAddr: 0x2368, symBinAddr: 0x26C0, symSize: 0x24 }
  - { offset: 0xE9A7, size: 0x8, addend: 0x0, symName: '__ZN127_$LT$pyo3..instance..Py$LT$pyo3..types..any..PyAny$GT$$u20$as$u20$core..convert..From$LT$pyo3..instance..Bound$LT$T$GT$$GT$$GT$4from17h38255134b3a61106E', symObjAddr: 0x6250, symBinAddr: 0x392C, symSize: 0x28 }
  - { offset: 0xE9E4, size: 0x8, addend: 0x0, symName: '__ZN128_$LT$pyo3..instance..Bound$LT$T$GT$$u20$as$u20$core..convert..AsRef$LT$pyo3..instance..Py$LT$pyo3..types..any..PyAny$GT$$GT$$GT$6as_ref17h59c08189a48fb222E', symObjAddr: 0x6278, symBinAddr: 0x3954, symSize: 0x28 }
  - { offset: 0x113AF, size: 0x8, addend: 0x0, symName: __ZN4pyo38instance13panic_on_null17h84d6fe65404d72e8E, symObjAddr: 0x90C0, symBinAddr: 0x4443C, symSize: 0x84 }
  - { offset: 0x11404, size: 0x8, addend: 0x0, symName: __ZN4pyo38instance13python_format17h6810646c2ccfb0adE, symObjAddr: 0x9144, symBinAddr: 0x4240, symSize: 0x2F8 }
  - { offset: 0x126A1, size: 0x8, addend: 0x0, symName: '__ZN4pyo38instance14Bound$LT$T$GT$4cast5inner17h38794f06d6a8e979E', symObjAddr: 0xA050, symBinAddr: 0x49B0, symSize: 0x84 }
  - { offset: 0x126D6, size: 0x8, addend: 0x0, symName: '__ZN4pyo38instance14Bound$LT$T$GT$4cast5inner17h6f83bff178d8e294E', symObjAddr: 0xA0D4, symBinAddr: 0x4A34, symSize: 0x84 }
  - { offset: 0x1270B, size: 0x8, addend: 0x0, symName: '__ZN4pyo38instance14Bound$LT$T$GT$4cast5inner17he6a9f4d7987c7c36E', symObjAddr: 0xA1DC, symBinAddr: 0x4AB8, symSize: 0x84 }
  - { offset: 0x12746, size: 0x8, addend: 0x0, symName: '__ZN4pyo38instance14Bound$LT$T$GT$9cast_into5inner17h55ea7e8a3fc4bb30E', symObjAddr: 0xB810, symBinAddr: 0x511C, symSize: 0xFC }
  - { offset: 0x1290F, size: 0x8, addend: 0x0, symName: '__ZN4pyo38instance36Bound$LT$pyo3..types..any..PyAny$GT$14from_owned_ptr28_$u7b$$u7b$closure$u7d$$u7d$17h3f00c0d5278881f1E', symObjAddr: 0xCD24, symBinAddr: 0x5404, symSize: 0x1C }
  - { offset: 0x12962, size: 0x8, addend: 0x0, symName: '__ZN4pyo38instance36Bound$LT$pyo3..types..any..PyAny$GT$21from_owned_ptr_or_opt28_$u7b$$u7b$closure$u7d$$u7d$17hf577678dacbaba19E', symObjAddr: 0xCE78, symBinAddr: 0x5520, symSize: 0x38 }
  - { offset: 0x129CA, size: 0x8, addend: 0x0, symName: '__ZN4pyo38instance39Borrowed$LT$pyo3..types..any..PyAny$GT$15from_ptr_or_err28_$u7b$$u7b$closure$u7d$$u7d$17h1ec8aecfe676cf88E', symObjAddr: 0xCF34, symBinAddr: 0x55A4, symSize: 0x58 }
  - { offset: 0x12A04, size: 0x8, addend: 0x0, symName: '__ZN4pyo38instance39Borrowed$LT$pyo3..types..any..PyAny$GT$15from_ptr_or_err28_$u7b$$u7b$closure$u7d$$u7d$17h76813dfb29f1753cE', symObjAddr: 0xCF8C, symBinAddr: 0x55FC, symSize: 0x40 }
  - { offset: 0x12A7A, size: 0x8, addend: 0x0, symName: '__ZN67_$LT$pyo3..instance..Bound$LT$T$GT$$u20$as$u20$core..fmt..Debug$GT$3fmt17h12a37fb370ac3ee0E', symObjAddr: 0xD218, symBinAddr: 0x56B4, symSize: 0x54 }
  - { offset: 0x12ADE, size: 0x8, addend: 0x0, symName: '__ZN67_$LT$pyo3..instance..Bound$LT$T$GT$$u20$as$u20$core..fmt..Debug$GT$3fmt17h51c041086bd77a05E', symObjAddr: 0xD26C, symBinAddr: 0x5708, symSize: 0x54 }
  - { offset: 0x12B42, size: 0x8, addend: 0x0, symName: '__ZN67_$LT$pyo3..instance..Bound$LT$T$GT$$u20$as$u20$core..fmt..Debug$GT$3fmt17h5dd3d0731a15d882E', symObjAddr: 0xD2C0, symBinAddr: 0x575C, symSize: 0x54 }
  - { offset: 0x12BAC, size: 0x8, addend: 0x0, symName: '__ZN69_$LT$pyo3..instance..Bound$LT$T$GT$$u20$as$u20$core..clone..Clone$GT$5clone17h45eb2851559e86d6E', symObjAddr: 0xD3D0, symBinAddr: 0x57B0, symSize: 0x34 }
  - { offset: 0x12BE3, size: 0x8, addend: 0x0, symName: '__ZN69_$LT$pyo3..instance..Bound$LT$T$GT$$u20$as$u20$core..clone..Clone$GT$5clone17h7a4823497819d5a7E', symObjAddr: 0xD4A0, symBinAddr: 0x57E4, symSize: 0x34 }
  - { offset: 0x12C1A, size: 0x8, addend: 0x0, symName: '__ZN69_$LT$pyo3..instance..Bound$LT$T$GT$$u20$as$u20$core..clone..Clone$GT$5clone17hb135aa92928e3953E', symObjAddr: 0xD53C, symBinAddr: 0x5818, symSize: 0x34 }
  - { offset: 0x12C57, size: 0x8, addend: 0x0, symName: '__ZN69_$LT$pyo3..instance..Bound$LT$T$GT$$u20$as$u20$core..fmt..Display$GT$3fmt17h7e19dfa02e9cee89E', symObjAddr: 0xD680, symBinAddr: 0x584C, symSize: 0x54 }
  - { offset: 0x12CBB, size: 0x8, addend: 0x0, symName: '__ZN69_$LT$pyo3..instance..Bound$LT$T$GT$$u20$as$u20$core..fmt..Display$GT$3fmt17hc7c3a544af80ce8fE', symObjAddr: 0xD6D4, symBinAddr: 0x58A0, symSize: 0x54 }
  - { offset: 0x12D25, size: 0x8, addend: 0x0, symName: '__ZN69_$LT$pyo3..instance..Py$LT$T$GT$$u20$as$u20$core..ops..drop..Drop$GT$4drop17h10f5cee41ff69621E', symObjAddr: 0xD728, symBinAddr: 0x58F4, symSize: 0x28 }
  - { offset: 0x12D58, size: 0x8, addend: 0x0, symName: '__ZN69_$LT$pyo3..instance..Py$LT$T$GT$$u20$as$u20$core..ops..drop..Drop$GT$4drop17h68790dc9a8062ffcE', symObjAddr: 0xD7A0, symBinAddr: 0x591C, symSize: 0x28 }
  - { offset: 0x12D8B, size: 0x8, addend: 0x0, symName: '__ZN69_$LT$pyo3..instance..Py$LT$T$GT$$u20$as$u20$core..ops..drop..Drop$GT$4drop17h8e46ac00c350fd0cE', symObjAddr: 0xD7C8, symBinAddr: 0x5944, symSize: 0x28 }
  - { offset: 0x12DBE, size: 0x8, addend: 0x0, symName: '__ZN69_$LT$pyo3..instance..Py$LT$T$GT$$u20$as$u20$core..ops..drop..Drop$GT$4drop17he0b0437070fb4f33E', symObjAddr: 0xD7F0, symBinAddr: 0x596C, symSize: 0x28 }
  - { offset: 0x12DF6, size: 0x8, addend: 0x0, symName: '__ZN69_$LT$pyo3..instance..Py$LT$T$GT$$u20$as$u20$core..ops..drop..Drop$GT$4drop5inner17h1dbd81b21a970661E', symObjAddr: 0xD840, symBinAddr: 0x5994, symSize: 0x68 }
  - { offset: 0x12E53, size: 0x8, addend: 0x0, symName: '__ZN69_$LT$pyo3..instance..Py$LT$T$GT$$u20$as$u20$core..ops..drop..Drop$GT$4drop9drop_slow17hb74e28087286952fE', symObjAddr: 0xD8A8, symBinAddr: 0x444C0, symSize: 0x24 }
  - { offset: 0x12E84, size: 0x8, addend: 0x0, symName: '__ZN72_$LT$pyo3..instance..Bound$LT$T$GT$$u20$as$u20$core..ops..drop..Drop$GT$4drop17h1d8e467538783c47E', symObjAddr: 0xD930, symBinAddr: 0x59FC, symSize: 0x30 }
  - { offset: 0x12ED5, size: 0x8, addend: 0x0, symName: '__ZN72_$LT$pyo3..instance..Bound$LT$T$GT$$u20$as$u20$core..ops..drop..Drop$GT$4drop17h33cefa3c94c38e4dE', symObjAddr: 0xD9C0, symBinAddr: 0x5A2C, symSize: 0x30 }
  - { offset: 0x12F26, size: 0x8, addend: 0x0, symName: '__ZN72_$LT$pyo3..instance..Bound$LT$T$GT$$u20$as$u20$core..ops..drop..Drop$GT$4drop17h56383ebdc72141baE', symObjAddr: 0xDA50, symBinAddr: 0x5A5C, symSize: 0x30 }
  - { offset: 0x12F77, size: 0x8, addend: 0x0, symName: '__ZN72_$LT$pyo3..instance..Bound$LT$T$GT$$u20$as$u20$core..ops..drop..Drop$GT$4drop17h5fcacf5d30a8279fE', symObjAddr: 0xDAB0, symBinAddr: 0x5A8C, symSize: 0x30 }
  - { offset: 0x12FC8, size: 0x8, addend: 0x0, symName: '__ZN72_$LT$pyo3..instance..Bound$LT$T$GT$$u20$as$u20$core..ops..drop..Drop$GT$4drop17h8937d47f97da1849E', symObjAddr: 0xDBA0, symBinAddr: 0x5ABC, symSize: 0x30 }
  - { offset: 0x13019, size: 0x8, addend: 0x0, symName: '__ZN72_$LT$pyo3..instance..Bound$LT$T$GT$$u20$as$u20$core..ops..drop..Drop$GT$4drop17h9ea09e11e79c2d3dE', symObjAddr: 0xDBD0, symBinAddr: 0x5AEC, symSize: 0x30 }
  - { offset: 0x1306A, size: 0x8, addend: 0x0, symName: '__ZN72_$LT$pyo3..instance..Bound$LT$T$GT$$u20$as$u20$core..ops..drop..Drop$GT$4drop17haa002dccf6721fffE', symObjAddr: 0xDC00, symBinAddr: 0x5B1C, symSize: 0x30 }
  - { offset: 0x130BB, size: 0x8, addend: 0x0, symName: '__ZN72_$LT$pyo3..instance..Bound$LT$T$GT$$u20$as$u20$core..ops..drop..Drop$GT$4drop17hc7c29b9ca078ac3aE', symObjAddr: 0xDC60, symBinAddr: 0x5B4C, symSize: 0x30 }
  - { offset: 0x1310C, size: 0x8, addend: 0x0, symName: '__ZN72_$LT$pyo3..instance..Bound$LT$T$GT$$u20$as$u20$core..ops..drop..Drop$GT$4drop17he027d0381793cf43E', symObjAddr: 0xDC90, symBinAddr: 0x5B7C, symSize: 0x30 }
  - { offset: 0x13163, size: 0x8, addend: 0x0, symName: '__ZN74_$LT$pyo3..instance..Bound$LT$T$GT$$u20$as$u20$core..ops..deref..Deref$GT$5deref17h5ea70ad7dec773d0E', symObjAddr: 0xDCE4, symBinAddr: 0x5BAC, symSize: 0x24 }
  - { offset: 0x1319A, size: 0x8, addend: 0x0, symName: '__ZN74_$LT$pyo3..instance..Bound$LT$T$GT$$u20$as$u20$core..ops..deref..Deref$GT$5deref17h68e14a17432c71dfE', symObjAddr: 0xDD2C, symBinAddr: 0x5BD0, symSize: 0x24 }
  - { offset: 0x131D1, size: 0x8, addend: 0x0, symName: '__ZN74_$LT$pyo3..instance..Bound$LT$T$GT$$u20$as$u20$core..ops..deref..Deref$GT$5deref17hc011275b1e11be89E', symObjAddr: 0xDE4C, symBinAddr: 0x5BF4, symSize: 0x24 }
  - { offset: 0x13208, size: 0x8, addend: 0x0, symName: '__ZN74_$LT$pyo3..instance..Bound$LT$T$GT$$u20$as$u20$core..ops..deref..Deref$GT$5deref17hea263875032c4041E', symObjAddr: 0xDE94, symBinAddr: 0x5C18, symSize: 0x24 }
  - { offset: 0x13245, size: 0x8, addend: 0x0, symName: '__ZN77_$LT$pyo3..instance..Borrowed$LT$T$GT$$u20$as$u20$core..ops..deref..Deref$GT$5deref17h1b5427e41835ffabE', symObjAddr: 0xDF28, symBinAddr: 0x5C3C, symSize: 0x28 }
  - { offset: 0x1327C, size: 0x8, addend: 0x0, symName: '__ZN77_$LT$pyo3..instance..Borrowed$LT$T$GT$$u20$as$u20$core..ops..deref..Deref$GT$5deref17h22f7988ef03b3792E', symObjAddr: 0xDF50, symBinAddr: 0x5C64, symSize: 0x28 }
  - { offset: 0x132B3, size: 0x8, addend: 0x0, symName: '__ZN77_$LT$pyo3..instance..Borrowed$LT$T$GT$$u20$as$u20$core..ops..deref..Deref$GT$5deref17h88b1bec274bfa01fE', symObjAddr: 0xE018, symBinAddr: 0x5C8C, symSize: 0x28 }
  - { offset: 0x132EA, size: 0x8, addend: 0x0, symName: '__ZN77_$LT$pyo3..instance..Borrowed$LT$T$GT$$u20$as$u20$core..ops..deref..Deref$GT$5deref17h8a55cd34fbaffdddE', symObjAddr: 0xE040, symBinAddr: 0x5CB4, symSize: 0x28 }
  - { offset: 0x13321, size: 0x8, addend: 0x0, symName: '__ZN77_$LT$pyo3..instance..Borrowed$LT$T$GT$$u20$as$u20$core..ops..deref..Deref$GT$5deref17hbcf89c05d8df2ac2E', symObjAddr: 0xE0E0, symBinAddr: 0x5CDC, symSize: 0x28 }
  - { offset: 0x1335E, size: 0x8, addend: 0x0, symName: '__ZN87_$LT$pyo3..instance..Bound$LT$T$GT$$u20$as$u20$pyo3..instance..BoundObject$LT$T$GT$$GT$10into_bound17h6e5ba4434bf968e5E', symObjAddr: 0xE32C, symBinAddr: 0x5D98, symSize: 0x14 }
  - { offset: 0x13395, size: 0x8, addend: 0x0, symName: '__ZN87_$LT$pyo3..instance..Bound$LT$T$GT$$u20$as$u20$pyo3..instance..BoundObject$LT$T$GT$$GT$11as_borrowed17h6adab6d64c72bd40E', symObjAddr: 0xE340, symBinAddr: 0x5DAC, symSize: 0x24 }
  - { offset: 0x133CC, size: 0x8, addend: 0x0, symName: '__ZN87_$LT$pyo3..instance..Bound$LT$T$GT$$u20$as$u20$pyo3..instance..BoundObject$LT$T$GT$$GT$11as_borrowed17ha667af1351de24b2E', symObjAddr: 0xE364, symBinAddr: 0x5DD0, symSize: 0x24 }
  - { offset: 0x13403, size: 0x8, addend: 0x0, symName: '__ZN87_$LT$pyo3..instance..Bound$LT$T$GT$$u20$as$u20$pyo3..instance..BoundObject$LT$T$GT$$GT$6as_ptr17h406106cd959ad24bE', symObjAddr: 0xE388, symBinAddr: 0x5DF4, symSize: 0x24 }
  - { offset: 0x1343A, size: 0x8, addend: 0x0, symName: '__ZN87_$LT$pyo3..instance..Bound$LT$T$GT$$u20$as$u20$pyo3..instance..BoundObject$LT$T$GT$$GT$6unbind17h4b4ab90ec31cf186E', symObjAddr: 0xE3AC, symBinAddr: 0x5E18, symSize: 0x24 }
  - { offset: 0x13471, size: 0x8, addend: 0x0, symName: '__ZN87_$LT$pyo3..instance..Bound$LT$T$GT$$u20$as$u20$pyo3..instance..BoundObject$LT$T$GT$$GT$8into_any17h032fbac79cceb21eE', symObjAddr: 0xE3D0, symBinAddr: 0x5E3C, symSize: 0x24 }
  - { offset: 0x134A8, size: 0x8, addend: 0x0, symName: '__ZN87_$LT$pyo3..instance..Bound$LT$T$GT$$u20$as$u20$pyo3..instance..BoundObject$LT$T$GT$$GT$8into_any17h16a2693edd5f95a4E', symObjAddr: 0xE418, symBinAddr: 0x5E60, symSize: 0x24 }
  - { offset: 0x134DF, size: 0x8, addend: 0x0, symName: '__ZN87_$LT$pyo3..instance..Bound$LT$T$GT$$u20$as$u20$pyo3..instance..BoundObject$LT$T$GT$$GT$8into_any17he78e96a8815946a3E', symObjAddr: 0xE4CC, symBinAddr: 0x5E84, symSize: 0x24 }
  - { offset: 0x1351C, size: 0x8, addend: 0x0, symName: '__ZN90_$LT$pyo3..instance..Borrowed$LT$T$GT$$u20$as$u20$pyo3..instance..BoundObject$LT$T$GT$$GT$11as_borrowed17hd1784cc8536e1577E', symObjAddr: 0xE51C, symBinAddr: 0x5EA8, symSize: 0x18 }
  - { offset: 0x13553, size: 0x8, addend: 0x0, symName: '__ZN90_$LT$pyo3..instance..Borrowed$LT$T$GT$$u20$as$u20$pyo3..instance..BoundObject$LT$T$GT$$GT$11as_borrowed17hf053c2b42bc62392E', symObjAddr: 0xE534, symBinAddr: 0x5EC0, symSize: 0x18 }
  - { offset: 0x1358A, size: 0x8, addend: 0x0, symName: '__ZN90_$LT$pyo3..instance..Borrowed$LT$T$GT$$u20$as$u20$pyo3..instance..BoundObject$LT$T$GT$$GT$6as_ptr17h69baceb09ebb718bE', symObjAddr: 0xE54C, symBinAddr: 0x5ED8, symSize: 0x28 }
  - { offset: 0x135C1, size: 0x8, addend: 0x0, symName: '__ZN90_$LT$pyo3..instance..Borrowed$LT$T$GT$$u20$as$u20$pyo3..instance..BoundObject$LT$T$GT$$GT$8into_any17h2ac4e1229d20d823E', symObjAddr: 0xE574, symBinAddr: 0x5F00, symSize: 0x24 }
  - { offset: 0x135F8, size: 0x8, addend: 0x0, symName: '__ZN90_$LT$pyo3..instance..Borrowed$LT$T$GT$$u20$as$u20$pyo3..instance..BoundObject$LT$T$GT$$GT$8into_any17ha5c61e33fba631eeE', symObjAddr: 0xE628, symBinAddr: 0x5F24, symSize: 0x24 }
  - { offset: 0x1362F, size: 0x8, addend: 0x0, symName: '__ZN90_$LT$pyo3..instance..Borrowed$LT$T$GT$$u20$as$u20$pyo3..instance..BoundObject$LT$T$GT$$GT$8into_any17hae83e5239e75a122E', symObjAddr: 0xE64C, symBinAddr: 0x5F48, symSize: 0x24 }
  - { offset: 0x13666, size: 0x8, addend: 0x0, symName: '__ZN90_$LT$pyo3..instance..Borrowed$LT$T$GT$$u20$as$u20$pyo3..instance..BoundObject$LT$T$GT$$GT$8into_any17hfb64b65c0275ea48E', symObjAddr: 0xE694, symBinAddr: 0x5F6C, symSize: 0x24 }
  - { offset: 0x1388B, size: 0x8, addend: 0x0, symName: __ZN4pyo310conversion15IntoPyObjectExt22into_pyobject_or_pyerr17h3db83388fc0a2ee1E, symObjAddr: 0x6C84, symBinAddr: 0x3A08, symSize: 0x48 }
  - { offset: 0x138FB, size: 0x8, addend: 0x0, symName: __ZN4pyo310conversion15IntoPyObjectExt22into_pyobject_or_pyerr17h3dd25cff3846c483E, symObjAddr: 0x6CCC, symBinAddr: 0x3A50, symSize: 0x48 }
  - { offset: 0x1396B, size: 0x8, addend: 0x0, symName: __ZN4pyo310conversion15IntoPyObjectExt22into_pyobject_or_pyerr17h8a7690ede1140927E, symObjAddr: 0x6DEC, symBinAddr: 0x3A98, symSize: 0x48 }
  - { offset: 0x139DB, size: 0x8, addend: 0x0, symName: __ZN4pyo310conversion15IntoPyObjectExt22into_pyobject_or_pyerr17hd2b7df61bbd077f7E, symObjAddr: 0x6E7C, symBinAddr: 0x3AE0, symSize: 0x48 }
  - { offset: 0x13A4B, size: 0x8, addend: 0x0, symName: __ZN4pyo310conversion15IntoPyObjectExt22into_pyobject_or_pyerr17hd603cab3b7c19aaaE, symObjAddr: 0x6EC4, symBinAddr: 0x3B28, symSize: 0x48 }
  - { offset: 0x13AC1, size: 0x8, addend: 0x0, symName: '__ZN84_$LT$pyo3..instance..Borrowed$LT$T$GT$$u20$as$u20$pyo3..conversion..IntoPyObject$GT$13into_pyobject17h2152c9adc600faeaE', symObjAddr: 0xE1F4, symBinAddr: 0x5D04, symSize: 0x14 }
  - { offset: 0x13B0F, size: 0x8, addend: 0x0, symName: '__ZN84_$LT$pyo3..instance..Borrowed$LT$T$GT$$u20$as$u20$pyo3..conversion..IntoPyObject$GT$13into_pyobject17hee26e5d451f23180E', symObjAddr: 0xE21C, symBinAddr: 0x5D18, symSize: 0x14 }
  - { offset: 0x13B63, size: 0x8, addend: 0x0, symName: '__ZN85_$LT$$RF$pyo3..instance..Bound$LT$T$GT$$u20$as$u20$pyo3..conversion..IntoPyObject$GT$13into_pyobject17h74735825f5b871adE', symObjAddr: 0xE278, symBinAddr: 0x5D2C, symSize: 0x24 }
  - { offset: 0x13BB1, size: 0x8, addend: 0x0, symName: '__ZN85_$LT$$RF$pyo3..instance..Bound$LT$T$GT$$u20$as$u20$pyo3..conversion..IntoPyObject$GT$13into_pyobject17h7a398496eaa367b6E', symObjAddr: 0xE29C, symBinAddr: 0x5D50, symSize: 0x24 }
  - { offset: 0x13BFF, size: 0x8, addend: 0x0, symName: '__ZN85_$LT$$RF$pyo3..instance..Bound$LT$T$GT$$u20$as$u20$pyo3..conversion..IntoPyObject$GT$13into_pyobject17hf447434458d35f29E', symObjAddr: 0xE308, symBinAddr: 0x5D74, symSize: 0x24 }
  - { offset: 0x13CD9, size: 0x8, addend: 0x0, symName: '__ZN44_$LT$T$u20$as$u20$alloc..borrow..ToOwned$GT$8to_owned17h9286fd734853b479E', symObjAddr: 0x6740, symBinAddr: 0x397C, symSize: 0x24 }
  - { offset: 0x14172, size: 0x8, addend: 0x0, symName: '__ZN4pyo35types5bytes77_$LT$impl$u20$pyo3..instance..Borrowed$LT$pyo3..types..bytes..PyBytes$GT$$GT$8as_bytes17hc94f4887a03726c7E', symObjAddr: 0x7308, symBinAddr: 0x3B70, symSize: 0x90 }
  - { offset: 0x141E5, size: 0x8, addend: 0x0, symName: '__ZN4pyo35types5tuple77_$LT$impl$u20$pyo3..instance..Borrowed$LT$pyo3..types..tuple..PyTuple$GT$$GT$17get_borrowed_item17h24b138343d428618E', symObjAddr: 0x7C04, symBinAddr: 0x3C00, symSize: 0x60 }
  - { offset: 0x1424F, size: 0x8, addend: 0x0, symName: '__ZN4pyo35types6string79_$LT$impl$u20$pyo3..instance..Borrowed$LT$pyo3..types..string..PyString$GT$$GT$15to_string_lossy17hccc3b8be7bfaa18eE', symObjAddr: 0x7DB4, symBinAddr: 0x3C60, symSize: 0x16C }
  - { offset: 0x142CB, size: 0x8, addend: 0x0, symName: '__ZN4pyo35types6string79_$LT$impl$u20$pyo3..instance..Borrowed$LT$pyo3..types..string..PyString$GT$$GT$6to_cow17hc233c585f764744eE', symObjAddr: 0x7F20, symBinAddr: 0x3DCC, symSize: 0x3C }
  - { offset: 0x142EE, size: 0x8, addend: 0x0, symName: '__ZN4pyo35types6string79_$LT$impl$u20$pyo3..instance..Borrowed$LT$pyo3..types..string..PyString$GT$$GT$6to_str17hde2720ae4d341100E', symObjAddr: 0x7F5C, symBinAddr: 0x3E08, symSize: 0xD0 }
  - { offset: 0x14392, size: 0x8, addend: 0x0, symName: '__ZN4pyo38instance11Py$LT$T$GT$10into_bound17h05650dac25c0e2acE', symObjAddr: 0x85AC, symBinAddr: 0x3ED8, symSize: 0x1C }
  - { offset: 0x144D6, size: 0x8, addend: 0x0, symName: '__ZN4pyo38instance11Py$LT$T$GT$4bind17h8139dd523d2e7da8E', symObjAddr: 0x875C, symBinAddr: 0x3EF4, symSize: 0x38 }
  - { offset: 0x14571, size: 0x8, addend: 0x0, symName: '__ZN4pyo38instance11Py$LT$T$GT$4bind17h82f7068b1a3bddd8E', symObjAddr: 0x8794, symBinAddr: 0x3F2C, symSize: 0x38 }
  - { offset: 0x14633, size: 0x8, addend: 0x0, symName: '__ZN4pyo38instance11Py$LT$T$GT$6as_ptr17h04763ebd0cd1ad5aE', symObjAddr: 0x8804, symBinAddr: 0x3F64, symSize: 0x1C }
  - { offset: 0x14679, size: 0x8, addend: 0x0, symName: '__ZN4pyo38instance11Py$LT$T$GT$6as_ptr17h2d4cfe370f4db35aE', symObjAddr: 0x883C, symBinAddr: 0x3F80, symSize: 0x1C }
  - { offset: 0x146A5, size: 0x8, addend: 0x0, symName: '__ZN4pyo38instance11Py$LT$T$GT$6as_ptr17h3aaceb6bb7b25c06E', symObjAddr: 0x8858, symBinAddr: 0x3F9C, symSize: 0x1C }
  - { offset: 0x146D1, size: 0x8, addend: 0x0, symName: '__ZN4pyo38instance11Py$LT$T$GT$6as_ptr17h3ff833afefb66e6aE', symObjAddr: 0x8874, symBinAddr: 0x3FB8, symSize: 0x1C }
  - { offset: 0x1470A, size: 0x8, addend: 0x0, symName: '__ZN4pyo38instance11Py$LT$T$GT$6as_ptr17h588fb91b5692c095E', symObjAddr: 0x88C8, symBinAddr: 0x3FD4, symSize: 0x1C }
  - { offset: 0x1476A, size: 0x8, addend: 0x0, symName: '__ZN4pyo38instance11Py$LT$T$GT$6as_ptr17h835cbe37732aaf7eE', symObjAddr: 0x8954, symBinAddr: 0x3FF0, symSize: 0x1C }
  - { offset: 0x147CA, size: 0x8, addend: 0x0, symName: '__ZN4pyo38instance11Py$LT$T$GT$6as_ptr17hb66923b4bf701650E', symObjAddr: 0x8A18, symBinAddr: 0x400C, symSize: 0x1C }
  - { offset: 0x14810, size: 0x8, addend: 0x0, symName: '__ZN4pyo38instance11Py$LT$T$GT$6as_ptr17hca64e781e252f04bE', symObjAddr: 0x8A6C, symBinAddr: 0x4028, symSize: 0x1C }
  - { offset: 0x14856, size: 0x8, addend: 0x0, symName: '__ZN4pyo38instance11Py$LT$T$GT$6as_ptr17hd4888a65f144b867E', symObjAddr: 0x8AC0, symBinAddr: 0x4044, symSize: 0x1C }
  - { offset: 0x148A9, size: 0x8, addend: 0x0, symName: '__ZN4pyo38instance11Py$LT$T$GT$8into_any17h0150242c46bd1f60E', symObjAddr: 0x8B30, symBinAddr: 0x4060, symSize: 0x30 }
  - { offset: 0x148D5, size: 0x8, addend: 0x0, symName: '__ZN4pyo38instance11Py$LT$T$GT$8into_any17h1959c499c49ba474E', symObjAddr: 0x8B60, symBinAddr: 0x4090, symSize: 0x30 }
  - { offset: 0x14901, size: 0x8, addend: 0x0, symName: '__ZN4pyo38instance11Py$LT$T$GT$8into_any17h246692eb8facf6c6E', symObjAddr: 0x8B90, symBinAddr: 0x40C0, symSize: 0x30 }
  - { offset: 0x1492D, size: 0x8, addend: 0x0, symName: '__ZN4pyo38instance11Py$LT$T$GT$8into_any17ha553547358997ab2E', symObjAddr: 0x8C50, symBinAddr: 0x40F0, symSize: 0x30 }
  - { offset: 0x14959, size: 0x8, addend: 0x0, symName: '__ZN4pyo38instance11Py$LT$T$GT$8into_any17hebcc957c2311451dE', symObjAddr: 0x8CB0, symBinAddr: 0x4120, symSize: 0x30 }
  - { offset: 0x14985, size: 0x8, addend: 0x0, symName: '__ZN4pyo38instance11Py$LT$T$GT$8into_ptr17hfad763350fee3514E', symObjAddr: 0x8D10, symBinAddr: 0x4150, symSize: 0x30 }
  - { offset: 0x149BE, size: 0x8, addend: 0x0, symName: '__ZN4pyo38instance11Py$LT$T$GT$9clone_ref17h2ccab9c0c34bde68E', symObjAddr: 0x8EC0, symBinAddr: 0x4180, symSize: 0x40 }
  - { offset: 0x14A23, size: 0x8, addend: 0x0, symName: '__ZN4pyo38instance11Py$LT$T$GT$9clone_ref17h6eadf8ade41ad530E', symObjAddr: 0x8F80, symBinAddr: 0x41C0, symSize: 0x40 }
  - { offset: 0x14A88, size: 0x8, addend: 0x0, symName: '__ZN4pyo38instance11Py$LT$T$GT$9clone_ref17hf011629d022bfd86E', symObjAddr: 0x9080, symBinAddr: 0x4200, symSize: 0x40 }
  - { offset: 0x14AED, size: 0x8, addend: 0x0, symName: '__ZN4pyo38instance14Bound$LT$T$GT$10as_unbound17hde3bfbb928457befE', symObjAddr: 0x943C, symBinAddr: 0x4538, symSize: 0x1C }
  - { offset: 0x14B19, size: 0x8, addend: 0x0, symName: '__ZN4pyo38instance14Bound$LT$T$GT$11as_borrowed17h0e7adef915e88b41E', symObjAddr: 0x9458, symBinAddr: 0x4554, symSize: 0x40 }
  - { offset: 0x14B45, size: 0x8, addend: 0x0, symName: '__ZN4pyo38instance14Bound$LT$T$GT$11as_borrowed17h1548007d6bde48fdE', symObjAddr: 0x9498, symBinAddr: 0x4594, symSize: 0x40 }
  - { offset: 0x14B8B, size: 0x8, addend: 0x0, symName: '__ZN4pyo38instance14Bound$LT$T$GT$11as_borrowed17h72884cf15f2fc0f5E', symObjAddr: 0x9598, symBinAddr: 0x45D4, symSize: 0x40 }
  - { offset: 0x14BC4, size: 0x8, addend: 0x0, symName: '__ZN4pyo38instance14Bound$LT$T$GT$11as_borrowed17h779fc23bf940e01aE', symObjAddr: 0x95D8, symBinAddr: 0x4614, symSize: 0x40 }
  - { offset: 0x14C0A, size: 0x8, addend: 0x0, symName: '__ZN4pyo38instance14Bound$LT$T$GT$11as_borrowed17h847142cf7a864520E', symObjAddr: 0x9658, symBinAddr: 0x4654, symSize: 0x40 }
  - { offset: 0x14C43, size: 0x8, addend: 0x0, symName: '__ZN4pyo38instance14Bound$LT$T$GT$11as_borrowed17he78180efa8116c63E', symObjAddr: 0x96D8, symBinAddr: 0x4694, symSize: 0x40 }
  - { offset: 0x14CB0, size: 0x8, addend: 0x0, symName: '__ZN4pyo38instance14Bound$LT$T$GT$14cast_unchecked17h2b82890cbc16c893E', symObjAddr: 0x9868, symBinAddr: 0x46D4, symSize: 0x38 }
  - { offset: 0x14D39, size: 0x8, addend: 0x0, symName: '__ZN4pyo38instance14Bound$LT$T$GT$14cast_unchecked17h7a593dabe1f21d90E', symObjAddr: 0x9910, symBinAddr: 0x470C, symSize: 0x38 }
  - { offset: 0x14D8C, size: 0x8, addend: 0x0, symName: '__ZN4pyo38instance14Bound$LT$T$GT$14cast_unchecked17h94ec6a29430cdccfE', symObjAddr: 0x99B8, symBinAddr: 0x4744, symSize: 0x38 }
  - { offset: 0x14DDF, size: 0x8, addend: 0x0, symName: '__ZN4pyo38instance14Bound$LT$T$GT$14cast_unchecked17hac39aafab35e947aE', symObjAddr: 0x99F0, symBinAddr: 0x477C, symSize: 0x38 }
  - { offset: 0x14E3F, size: 0x8, addend: 0x0, symName: '__ZN4pyo38instance14Bound$LT$T$GT$14cast_unchecked17he86b7cb8624ff178E', symObjAddr: 0x9A98, symBinAddr: 0x47B4, symSize: 0x38 }
  - { offset: 0x14E9F, size: 0x8, addend: 0x0, symName: '__ZN4pyo38instance14Bound$LT$T$GT$19cast_into_unchecked17h09547daaa4a12bb4E', symObjAddr: 0x9B58, symBinAddr: 0x47EC, symSize: 0x14 }
  - { offset: 0x14ED4, size: 0x8, addend: 0x0, symName: '__ZN4pyo38instance14Bound$LT$T$GT$19cast_into_unchecked17h11282b24fff485a3E', symObjAddr: 0x9B94, symBinAddr: 0x4800, symSize: 0x14 }
  - { offset: 0x14F09, size: 0x8, addend: 0x0, symName: '__ZN4pyo38instance14Bound$LT$T$GT$19cast_into_unchecked17h15fd285de976f4dfE', symObjAddr: 0x9BA8, symBinAddr: 0x4814, symSize: 0x14 }
  - { offset: 0x14F3E, size: 0x8, addend: 0x0, symName: '__ZN4pyo38instance14Bound$LT$T$GT$19cast_into_unchecked17h2b3722862a37e4a0E', symObjAddr: 0x9BE4, symBinAddr: 0x4828, symSize: 0x14 }
  - { offset: 0x14F73, size: 0x8, addend: 0x0, symName: '__ZN4pyo38instance14Bound$LT$T$GT$19cast_into_unchecked17h3f5011404fca3020E', symObjAddr: 0x9C0C, symBinAddr: 0x483C, symSize: 0x14 }
  - { offset: 0x14FA8, size: 0x8, addend: 0x0, symName: '__ZN4pyo38instance14Bound$LT$T$GT$19cast_into_unchecked17h4935af6193d58accE', symObjAddr: 0x9C34, symBinAddr: 0x4850, symSize: 0x14 }
  - { offset: 0x14FDD, size: 0x8, addend: 0x0, symName: '__ZN4pyo38instance14Bound$LT$T$GT$19cast_into_unchecked17h6f74d4c07e6b4c19E', symObjAddr: 0x9C98, symBinAddr: 0x4864, symSize: 0x14 }
  - { offset: 0x15012, size: 0x8, addend: 0x0, symName: '__ZN4pyo38instance14Bound$LT$T$GT$19cast_into_unchecked17h86cd5faea1bcf076E', symObjAddr: 0x9CE8, symBinAddr: 0x4878, symSize: 0x14 }
  - { offset: 0x15047, size: 0x8, addend: 0x0, symName: '__ZN4pyo38instance14Bound$LT$T$GT$19cast_into_unchecked17hc862682c6dd66924E', symObjAddr: 0x9D60, symBinAddr: 0x488C, symSize: 0x14 }
  - { offset: 0x150B0, size: 0x8, addend: 0x0, symName: '__ZN4pyo38instance14Bound$LT$T$GT$2py17h380c1157c9c88482E', symObjAddr: 0x9E30, symBinAddr: 0x48A0, symSize: 0x10 }
  - { offset: 0x150DC, size: 0x8, addend: 0x0, symName: '__ZN4pyo38instance14Bound$LT$T$GT$2py17h4597ac2de2b4a1b7E', symObjAddr: 0x9E40, symBinAddr: 0x48B0, symSize: 0x10 }
  - { offset: 0x15108, size: 0x8, addend: 0x0, symName: '__ZN4pyo38instance14Bound$LT$T$GT$2py17h4f43a771db175d99E', symObjAddr: 0x9E50, symBinAddr: 0x48C0, symSize: 0x10 }
  - { offset: 0x15134, size: 0x8, addend: 0x0, symName: '__ZN4pyo38instance14Bound$LT$T$GT$2py17h6fd27420e7901449E', symObjAddr: 0x9E70, symBinAddr: 0x48D0, symSize: 0x10 }
  - { offset: 0x15160, size: 0x8, addend: 0x0, symName: '__ZN4pyo38instance14Bound$LT$T$GT$2py17h7cc2be0971394996E', symObjAddr: 0x9E80, symBinAddr: 0x48E0, symSize: 0x10 }
  - { offset: 0x15199, size: 0x8, addend: 0x0, symName: '__ZN4pyo38instance14Bound$LT$T$GT$2py17h9c8a9a4e864fcea0E', symObjAddr: 0x9EB0, symBinAddr: 0x48F0, symSize: 0x10 }
  - { offset: 0x15206, size: 0x8, addend: 0x0, symName: '__ZN4pyo38instance14Bound$LT$T$GT$2py17hf653d7e3183313b9E', symObjAddr: 0x9F70, symBinAddr: 0x4900, symSize: 0x10 }
  - { offset: 0x15232, size: 0x8, addend: 0x0, symName: '__ZN4pyo38instance14Bound$LT$T$GT$2py17hf9bc6db05dd80425E', symObjAddr: 0x9F80, symBinAddr: 0x4910, symSize: 0x10 }
  - { offset: 0x1525E, size: 0x8, addend: 0x0, symName: '__ZN4pyo38instance14Bound$LT$T$GT$4cast17h146c9820ac0a8beaE', symObjAddr: 0x9F90, symBinAddr: 0x4920, symSize: 0x30 }
  - { offset: 0x15292, size: 0x8, addend: 0x0, symName: '__ZN4pyo38instance14Bound$LT$T$GT$4cast17h787344afe169089cE', symObjAddr: 0x9FF0, symBinAddr: 0x4950, symSize: 0x30 }
  - { offset: 0x152C6, size: 0x8, addend: 0x0, symName: '__ZN4pyo38instance14Bound$LT$T$GT$4cast17hffe2c369c7bbb9cfE', symObjAddr: 0xA020, symBinAddr: 0x4980, symSize: 0x30 }
  - { offset: 0x152FA, size: 0x8, addend: 0x0, symName: '__ZN4pyo38instance14Bound$LT$T$GT$6as_any17h2215b26e28189c8aE', symObjAddr: 0xA2D0, symBinAddr: 0x4B3C, symSize: 0x38 }
  - { offset: 0x15362, size: 0x8, addend: 0x0, symName: '__ZN4pyo38instance14Bound$LT$T$GT$6as_any17h33191fbf49a7e7b5E', symObjAddr: 0xA378, symBinAddr: 0x4B74, symSize: 0x38 }
  - { offset: 0x153CA, size: 0x8, addend: 0x0, symName: '__ZN4pyo38instance14Bound$LT$T$GT$6as_any17h5dad16d4dae3bc54E', symObjAddr: 0xA420, symBinAddr: 0x4BAC, symSize: 0x38 }
  - { offset: 0x15432, size: 0x8, addend: 0x0, symName: '__ZN4pyo38instance14Bound$LT$T$GT$6as_any17hc327bd13ad665484E', symObjAddr: 0xA538, symBinAddr: 0x4BE4, symSize: 0x38 }
  - { offset: 0x1549A, size: 0x8, addend: 0x0, symName: '__ZN4pyo38instance14Bound$LT$T$GT$6as_any17hce9268b7f19d9b9bE', symObjAddr: 0xA570, symBinAddr: 0x4C1C, symSize: 0x38 }
  - { offset: 0x15502, size: 0x8, addend: 0x0, symName: '__ZN4pyo38instance14Bound$LT$T$GT$6as_any17hceb53844c9676a7eE', symObjAddr: 0xA5A8, symBinAddr: 0x4C54, symSize: 0x38 }
  - { offset: 0x15577, size: 0x8, addend: 0x0, symName: '__ZN4pyo38instance14Bound$LT$T$GT$6as_ptr17h004bdc4bdeb2aa44E', symObjAddr: 0xA650, symBinAddr: 0x4C8C, symSize: 0x2C }
  - { offset: 0x155A3, size: 0x8, addend: 0x0, symName: '__ZN4pyo38instance14Bound$LT$T$GT$6as_ptr17h19304875f32eb802E', symObjAddr: 0xA6A8, symBinAddr: 0x4CB8, symSize: 0x2C }
  - { offset: 0x155CF, size: 0x8, addend: 0x0, symName: '__ZN4pyo38instance14Bound$LT$T$GT$6as_ptr17h37cbfad250bee1d4E', symObjAddr: 0xA758, symBinAddr: 0x4CE4, symSize: 0x2C }
  - { offset: 0x15608, size: 0x8, addend: 0x0, symName: '__ZN4pyo38instance14Bound$LT$T$GT$6as_ptr17h3c0d3d7028440c0cE', symObjAddr: 0xA7B0, symBinAddr: 0x4D10, symSize: 0x2C }
  - { offset: 0x15634, size: 0x8, addend: 0x0, symName: '__ZN4pyo38instance14Bound$LT$T$GT$6as_ptr17h5a39e110457d9c32E', symObjAddr: 0xA88C, symBinAddr: 0x4D3C, symSize: 0x2C }
  - { offset: 0x15660, size: 0x8, addend: 0x0, symName: '__ZN4pyo38instance14Bound$LT$T$GT$6as_ptr17h60fbef9227d90161E', symObjAddr: 0xA8B8, symBinAddr: 0x4D68, symSize: 0x2C }
  - { offset: 0x1568C, size: 0x8, addend: 0x0, symName: '__ZN4pyo38instance14Bound$LT$T$GT$6as_ptr17h8b0a71d9c291f16cE', symObjAddr: 0xA994, symBinAddr: 0x4D94, symSize: 0x2C }
  - { offset: 0x156C5, size: 0x8, addend: 0x0, symName: '__ZN4pyo38instance14Bound$LT$T$GT$6as_ptr17hd195a5bfcad18249E', symObjAddr: 0xAA70, symBinAddr: 0x4DC0, symSize: 0x2C }
  - { offset: 0x156FE, size: 0x8, addend: 0x0, symName: '__ZN4pyo38instance14Bound$LT$T$GT$6as_ptr17hf98029b467f96f43E', symObjAddr: 0xAAF4, symBinAddr: 0x4DEC, symSize: 0x2C }
  - { offset: 0x1572A, size: 0x8, addend: 0x0, symName: '__ZN4pyo38instance14Bound$LT$T$GT$6unbind17h3bd8f3ca0fc03804E', symObjAddr: 0xAB4C, symBinAddr: 0x4E18, symSize: 0x3C }
  - { offset: 0x15756, size: 0x8, addend: 0x0, symName: '__ZN4pyo38instance14Bound$LT$T$GT$6unbind17h43cdce79a0116ab2E', symObjAddr: 0xAB88, symBinAddr: 0x4E54, symSize: 0x3C }
  - { offset: 0x15782, size: 0x8, addend: 0x0, symName: '__ZN4pyo38instance14Bound$LT$T$GT$6unbind17h44c66160f5e92733E', symObjAddr: 0xABC4, symBinAddr: 0x4E90, symSize: 0x3C }
  - { offset: 0x157AE, size: 0x8, addend: 0x0, symName: '__ZN4pyo38instance14Bound$LT$T$GT$6unbind17h6be24e6a63163ad8E', symObjAddr: 0xAC3C, symBinAddr: 0x4ECC, symSize: 0x3C }
  - { offset: 0x157DA, size: 0x8, addend: 0x0, symName: '__ZN4pyo38instance14Bound$LT$T$GT$6unbind17ha9d48c3e8f7348c2E', symObjAddr: 0xACB4, symBinAddr: 0x4F08, symSize: 0x3C }
  - { offset: 0x15806, size: 0x8, addend: 0x0, symName: '__ZN4pyo38instance14Bound$LT$T$GT$6unbind17hb5f492b39bf18029E', symObjAddr: 0xADE0, symBinAddr: 0x4F44, symSize: 0x3C }
  - { offset: 0x15832, size: 0x8, addend: 0x0, symName: '__ZN4pyo38instance14Bound$LT$T$GT$6unbind17hed35941d9f69894bE', symObjAddr: 0xAE58, symBinAddr: 0x4F80, symSize: 0x3C }
  - { offset: 0x1585E, size: 0x8, addend: 0x0, symName: '__ZN4pyo38instance14Bound$LT$T$GT$8into_any17h248a8ec4b81d14e3E', symObjAddr: 0xAE94, symBinAddr: 0x4FBC, symSize: 0x30 }
  - { offset: 0x1588A, size: 0x8, addend: 0x0, symName: '__ZN4pyo38instance14Bound$LT$T$GT$8into_any17h8df1cef9b0b8c902E', symObjAddr: 0xAF24, symBinAddr: 0x4FEC, symSize: 0x30 }
  - { offset: 0x158B6, size: 0x8, addend: 0x0, symName: '__ZN4pyo38instance14Bound$LT$T$GT$8into_any17h9dd955be942ef90fE', symObjAddr: 0xAF84, symBinAddr: 0x501C, symSize: 0x30 }
  - { offset: 0x158E2, size: 0x8, addend: 0x0, symName: '__ZN4pyo38instance14Bound$LT$T$GT$8into_any17h9fd8436476c65a8bE', symObjAddr: 0xAFB4, symBinAddr: 0x504C, symSize: 0x30 }
  - { offset: 0x1590E, size: 0x8, addend: 0x0, symName: '__ZN4pyo38instance14Bound$LT$T$GT$8into_any17hba8cbde92991f48eE', symObjAddr: 0xAFE4, symBinAddr: 0x507C, symSize: 0x30 }
  - { offset: 0x1593A, size: 0x8, addend: 0x0, symName: '__ZN4pyo38instance14Bound$LT$T$GT$8into_ptr17h7a6483122ebc62cfE', symObjAddr: 0xB044, symBinAddr: 0x50AC, symSize: 0x40 }
  - { offset: 0x15966, size: 0x8, addend: 0x0, symName: '__ZN4pyo38instance14Bound$LT$T$GT$9cast_into17hff759d6c044e7ef0E', symObjAddr: 0xB2F4, symBinAddr: 0x50EC, symSize: 0x30 }
  - { offset: 0x1599A, size: 0x8, addend: 0x0, symName: '__ZN4pyo38instance17Borrowed$LT$T$GT$14cast_unchecked17h4165e975437d151aE', symObjAddr: 0xC100, symBinAddr: 0x5218, symSize: 0x14 }
  - { offset: 0x159CF, size: 0x8, addend: 0x0, symName: '__ZN4pyo38instance17Borrowed$LT$T$GT$14cast_unchecked17h46f8f5b34c99a590E', symObjAddr: 0xC114, symBinAddr: 0x522C, symSize: 0x14 }
  - { offset: 0x15A04, size: 0x8, addend: 0x0, symName: '__ZN4pyo38instance17Borrowed$LT$T$GT$14cast_unchecked17h6cb03e75bda71c36E', symObjAddr: 0xC164, symBinAddr: 0x5240, symSize: 0x14 }
  - { offset: 0x15A39, size: 0x8, addend: 0x0, symName: '__ZN4pyo38instance17Borrowed$LT$T$GT$14cast_unchecked17h949bc3b1f1caf1fbE', symObjAddr: 0xC1DC, symBinAddr: 0x5254, symSize: 0x14 }
  - { offset: 0x15A6E, size: 0x8, addend: 0x0, symName: '__ZN4pyo38instance17Borrowed$LT$T$GT$14cast_unchecked17hb3414b5ce8701a57E', symObjAddr: 0xC1F0, symBinAddr: 0x5268, symSize: 0x14 }
  - { offset: 0x15AA3, size: 0x8, addend: 0x0, symName: '__ZN4pyo38instance17Borrowed$LT$T$GT$14cast_unchecked17hb9b135075132f2bcE', symObjAddr: 0xC204, symBinAddr: 0x527C, symSize: 0x14 }
  - { offset: 0x15AD8, size: 0x8, addend: 0x0, symName: '__ZN4pyo38instance17Borrowed$LT$T$GT$14cast_unchecked17hed7ca8381723c3d8E', symObjAddr: 0xC22C, symBinAddr: 0x5290, symSize: 0x14 }
  - { offset: 0x15B0D, size: 0x8, addend: 0x0, symName: '__ZN4pyo38instance17Borrowed$LT$T$GT$6as_ptr17h4333e57329ba8f12E', symObjAddr: 0xC72C, symBinAddr: 0x52A4, symSize: 0x1C }
  - { offset: 0x15B39, size: 0x8, addend: 0x0, symName: '__ZN4pyo38instance17Borrowed$LT$T$GT$6as_ptr17h54de062fab25b935E', symObjAddr: 0xC748, symBinAddr: 0x52C0, symSize: 0x1C }
  - { offset: 0x15B65, size: 0x8, addend: 0x0, symName: '__ZN4pyo38instance17Borrowed$LT$T$GT$6as_ptr17h6f2cdcb1e193da4eE', symObjAddr: 0xC764, symBinAddr: 0x52DC, symSize: 0x1C }
  - { offset: 0x15B91, size: 0x8, addend: 0x0, symName: '__ZN4pyo38instance17Borrowed$LT$T$GT$6as_ptr17hedf16e963eefdc97E', symObjAddr: 0xC79C, symBinAddr: 0x52F8, symSize: 0x1C }
  - { offset: 0x15BBD, size: 0x8, addend: 0x0, symName: '__ZN4pyo38instance17Borrowed$LT$T$GT$6to_any17h3653f2d021350aa4E', symObjAddr: 0xC7B8, symBinAddr: 0x5314, symSize: 0x14 }
  - { offset: 0x15BE9, size: 0x8, addend: 0x0, symName: '__ZN4pyo38instance17Borrowed$LT$T$GT$6to_any17h5f7974f759e754a8E', symObjAddr: 0xC7F4, symBinAddr: 0x5328, symSize: 0x14 }
  - { offset: 0x15C15, size: 0x8, addend: 0x0, symName: '__ZN4pyo38instance17Borrowed$LT$T$GT$6to_any17hc66a914874848709E', symObjAddr: 0xC830, symBinAddr: 0x533C, symSize: 0x14 }
  - { offset: 0x15C41, size: 0x8, addend: 0x0, symName: '__ZN4pyo38instance17Borrowed$LT$T$GT$6to_any17hcec8971f40a737fdE', symObjAddr: 0xC844, symBinAddr: 0x5350, symSize: 0x14 }
  - { offset: 0x15CBE, size: 0x8, addend: 0x0, symName: '__ZN4pyo38instance17Borrowed$LT$T$GT$8to_owned17h9694775240cf89dcE', symObjAddr: 0xCC20, symBinAddr: 0x5364, symSize: 0x2C }
  - { offset: 0x15CEA, size: 0x8, addend: 0x0, symName: '__ZN4pyo38instance17Borrowed$LT$T$GT$8to_owned17hcdb06781a9312ed2E', symObjAddr: 0xCC4C, symBinAddr: 0x5390, symSize: 0x2C }
  - { offset: 0x15D4E, size: 0x8, addend: 0x0, symName: '__ZN4pyo38instance36Bound$LT$pyo3..types..any..PyAny$GT$14from_owned_ptr17h3bf4004a8939a9e4E', symObjAddr: 0xCCDC, symBinAddr: 0x53BC, symSize: 0x48 }
  - { offset: 0x15DB7, size: 0x8, addend: 0x0, symName: '__ZN4pyo38instance36Bound$LT$pyo3..types..any..PyAny$GT$17ref_from_non_null17h4e49eddf98a0c00fE', symObjAddr: 0xCD40, symBinAddr: 0x5420, symSize: 0x38 }
  - { offset: 0x15E3E, size: 0x8, addend: 0x0, symName: '__ZN4pyo38instance36Bound$LT$pyo3..types..any..PyAny$GT$21from_owned_ptr_or_err17h2bb73f3f6be31637E', symObjAddr: 0xCDB0, symBinAddr: 0x5458, symSize: 0x9C }
  - { offset: 0x15E9A, size: 0x8, addend: 0x0, symName: '__ZN4pyo38instance36Bound$LT$pyo3..types..any..PyAny$GT$21from_owned_ptr_or_opt17h1735d15206f7f07aE', symObjAddr: 0xCE4C, symBinAddr: 0x54F4, symSize: 0x2C }
  - { offset: 0x15ED8, size: 0x8, addend: 0x0, symName: '__ZN4pyo38instance39Borrowed$LT$pyo3..types..any..PyAny$GT$13from_non_null17h345867da40c37fdaE', symObjAddr: 0xCEE8, symBinAddr: 0x5558, symSize: 0x14 }
  - { offset: 0x15F16, size: 0x8, addend: 0x0, symName: '__ZN4pyo38instance39Borrowed$LT$pyo3..types..any..PyAny$GT$15from_ptr_or_err17haf4e39be54a5acbfE', symObjAddr: 0xCEFC, symBinAddr: 0x556C, symSize: 0x38 }
  - { offset: 0x15F54, size: 0x8, addend: 0x0, symName: '__ZN4pyo38instance39Borrowed$LT$pyo3..types..any..PyAny$GT$18from_ptr_unchecked17hd30496980ae358baE', symObjAddr: 0xCFCC, symBinAddr: 0x563C, symSize: 0x30 }
  - { offset: 0x161F1, size: 0x8, addend: 0x0, symName: '__ZN152_$LT$core..result..Result$LT$pyo3..instance..Bound$LT$pyo3..types..any..PyAny$GT$$C$pyo3..err..PyErr$GT$$u20$as$u20$pyo3..py_result_ext..PyResultExt$GT$19cast_into_unchecked17h035ac3e234d19acdE', symObjAddr: 0x0, symBinAddr: 0x5F90, symSize: 0x40 }
  - { offset: 0x16DDF, size: 0x8, addend: 0x0, symName: '__ZN153_$LT$core..result..Result$LT$T$C$F$GT$$u20$as$u20$core..ops..try_trait..FromResidual$LT$core..result..Result$LT$core..convert..Infallible$C$E$GT$$GT$$GT$13from_residual17h1242cf6414a831f5E', symObjAddr: 0x7F4, symBinAddr: 0x6050, symSize: 0x6C }
  - { offset: 0x16E65, size: 0x8, addend: 0x0, symName: '__ZN153_$LT$core..result..Result$LT$T$C$F$GT$$u20$as$u20$core..ops..try_trait..FromResidual$LT$core..result..Result$LT$core..convert..Infallible$C$E$GT$$GT$$GT$13from_residual17h2c841fd2a29cf489E', symObjAddr: 0xC08, symBinAddr: 0x60BC, symSize: 0x6C }
  - { offset: 0x16ECC, size: 0x8, addend: 0x0, symName: '__ZN153_$LT$core..result..Result$LT$T$C$F$GT$$u20$as$u20$core..ops..try_trait..FromResidual$LT$core..result..Result$LT$core..convert..Infallible$C$E$GT$$GT$$GT$13from_residual17h370575d3ba1b04a9E', symObjAddr: 0xFD4, symBinAddr: 0x6128, symSize: 0x6C }
  - { offset: 0x16F52, size: 0x8, addend: 0x0, symName: '__ZN153_$LT$core..result..Result$LT$T$C$F$GT$$u20$as$u20$core..ops..try_trait..FromResidual$LT$core..result..Result$LT$core..convert..Infallible$C$E$GT$$GT$$GT$13from_residual17h414ca759b011a114E', symObjAddr: 0x10AC, symBinAddr: 0x6194, symSize: 0x14 }
  - { offset: 0x16F9B, size: 0x8, addend: 0x0, symName: '__ZN153_$LT$core..result..Result$LT$T$C$F$GT$$u20$as$u20$core..ops..try_trait..FromResidual$LT$core..result..Result$LT$core..convert..Infallible$C$E$GT$$GT$$GT$13from_residual17h65dd7cdf4f524793E', symObjAddr: 0x13F8, symBinAddr: 0x61A8, symSize: 0x6C }
  - { offset: 0x17021, size: 0x8, addend: 0x0, symName: '__ZN153_$LT$core..result..Result$LT$T$C$F$GT$$u20$as$u20$core..ops..try_trait..FromResidual$LT$core..result..Result$LT$core..convert..Infallible$C$E$GT$$GT$$GT$13from_residual17h77eaa346621966e0E', symObjAddr: 0x164C, symBinAddr: 0x6214, symSize: 0x6C }
  - { offset: 0x170A7, size: 0x8, addend: 0x0, symName: '__ZN153_$LT$core..result..Result$LT$T$C$F$GT$$u20$as$u20$core..ops..try_trait..FromResidual$LT$core..result..Result$LT$core..convert..Infallible$C$E$GT$$GT$$GT$13from_residual17h8601537891fed490E', symObjAddr: 0x1AF0, symBinAddr: 0x6280, symSize: 0x6C }
  - { offset: 0x1712D, size: 0x8, addend: 0x0, symName: '__ZN153_$LT$core..result..Result$LT$T$C$F$GT$$u20$as$u20$core..ops..try_trait..FromResidual$LT$core..result..Result$LT$core..convert..Infallible$C$E$GT$$GT$$GT$13from_residual17hb2d5786c805689cdE', symObjAddr: 0x22FC, symBinAddr: 0x62EC, symSize: 0x6C }
  - { offset: 0x171B3, size: 0x8, addend: 0x0, symName: '__ZN153_$LT$core..result..Result$LT$T$C$F$GT$$u20$as$u20$core..ops..try_trait..FromResidual$LT$core..result..Result$LT$core..convert..Infallible$C$E$GT$$GT$$GT$13from_residual17hbbded2a34defe913E', symObjAddr: 0x2584, symBinAddr: 0x6358, symSize: 0x6C }
  - { offset: 0x17239, size: 0x8, addend: 0x0, symName: '__ZN153_$LT$core..result..Result$LT$T$C$F$GT$$u20$as$u20$core..ops..try_trait..FromResidual$LT$core..result..Result$LT$core..convert..Infallible$C$E$GT$$GT$$GT$13from_residual17heb58cf3563138f79E', symObjAddr: 0x2C4C, symBinAddr: 0x63C4, symSize: 0x6C }
  - { offset: 0x196FF, size: 0x8, addend: 0x0, symName: '__ZN79_$LT$core..result..Result$LT$T$C$E$GT$$u20$as$u20$core..ops..try_trait..Try$GT$6branch17h00bad528f28eb7adE', symObjAddr: 0x6798, symBinAddr: 0x7040, symSize: 0xA0 }
  - { offset: 0x1977C, size: 0x8, addend: 0x0, symName: '__ZN79_$LT$core..result..Result$LT$T$C$E$GT$$u20$as$u20$core..ops..try_trait..Try$GT$6branch17h05ab617d4f98ca1dE', symObjAddr: 0x6A24, symBinAddr: 0x70E0, symSize: 0xB4 }
  - { offset: 0x197FA, size: 0x8, addend: 0x0, symName: '__ZN79_$LT$core..result..Result$LT$T$C$E$GT$$u20$as$u20$core..ops..try_trait..Try$GT$6branch17h17789f5366d6efceE', symObjAddr: 0x6D88, symBinAddr: 0x7194, symSize: 0xA0 }
  - { offset: 0x19877, size: 0x8, addend: 0x0, symName: '__ZN79_$LT$core..result..Result$LT$T$C$E$GT$$u20$as$u20$core..ops..try_trait..Try$GT$6branch17h1f34c4f8c75eaa3dE', symObjAddr: 0x6EC8, symBinAddr: 0x7234, symSize: 0x14 }
  - { offset: 0x198B3, size: 0x8, addend: 0x0, symName: '__ZN79_$LT$core..result..Result$LT$T$C$E$GT$$u20$as$u20$core..ops..try_trait..Try$GT$6branch17h3656d518efbab148E', symObjAddr: 0x7214, symBinAddr: 0x7248, symSize: 0x38 }
  - { offset: 0x1992F, size: 0x8, addend: 0x0, symName: '__ZN79_$LT$core..result..Result$LT$T$C$E$GT$$u20$as$u20$core..ops..try_trait..Try$GT$6branch17h39c5a8c01e719af7E', symObjAddr: 0x724C, symBinAddr: 0x7280, symSize: 0xA0 }
  - { offset: 0x199AC, size: 0x8, addend: 0x0, symName: '__ZN79_$LT$core..result..Result$LT$T$C$E$GT$$u20$as$u20$core..ops..try_trait..Try$GT$6branch17h3e259c31f2b8b42dE', symObjAddr: 0x738C, symBinAddr: 0x7320, symSize: 0xA0 }
  - { offset: 0x19A29, size: 0x8, addend: 0x0, symName: '__ZN79_$LT$core..result..Result$LT$T$C$E$GT$$u20$as$u20$core..ops..try_trait..Try$GT$6branch17h53cb8d7e3d45f7aeE', symObjAddr: 0x7494, symBinAddr: 0x73C0, symSize: 0xA0 }
  - { offset: 0x19AA6, size: 0x8, addend: 0x0, symName: '__ZN79_$LT$core..result..Result$LT$T$C$E$GT$$u20$as$u20$core..ops..try_trait..Try$GT$6branch17h5f2ce4b0ca3d56aaE', symObjAddr: 0x75D4, symBinAddr: 0x7460, symSize: 0xA0 }
  - { offset: 0x19B23, size: 0x8, addend: 0x0, symName: '__ZN79_$LT$core..result..Result$LT$T$C$E$GT$$u20$as$u20$core..ops..try_trait..Try$GT$6branch17h79c2a4f4a5f6435aE', symObjAddr: 0x7BC0, symBinAddr: 0x7500, symSize: 0x44 }
  - { offset: 0x19B9F, size: 0x8, addend: 0x0, symName: '__ZN79_$LT$core..result..Result$LT$T$C$E$GT$$u20$as$u20$core..ops..try_trait..Try$GT$6branch17h8c9064f15feee38fE', symObjAddr: 0x8108, symBinAddr: 0x7544, symSize: 0xA0 }
  - { offset: 0x19C1C, size: 0x8, addend: 0x0, symName: '__ZN79_$LT$core..result..Result$LT$T$C$E$GT$$u20$as$u20$core..ops..try_trait..Try$GT$6branch17h9cbcf59e1efeea08E', symObjAddr: 0x82F4, symBinAddr: 0x75E4, symSize: 0xA0 }
  - { offset: 0x19C99, size: 0x8, addend: 0x0, symName: '__ZN79_$LT$core..result..Result$LT$T$C$E$GT$$u20$as$u20$core..ops..try_trait..Try$GT$6branch17hb90eb9b48fc644daE', symObjAddr: 0x871C, symBinAddr: 0x7684, symSize: 0x68 }
  - { offset: 0x19D16, size: 0x8, addend: 0x0, symName: '__ZN79_$LT$core..result..Result$LT$T$C$E$GT$$u20$as$u20$core..ops..try_trait..Try$GT$6branch17hbb2a5ca1d6f8c79aE', symObjAddr: 0x8784, symBinAddr: 0x76EC, symSize: 0x90 }
  - { offset: 0x1B579, size: 0x8, addend: 0x0, symName: '__ZN152_$LT$core..result..Result$LT$pyo3..instance..Bound$LT$pyo3..types..any..PyAny$GT$$C$pyo3..err..PyErr$GT$$u20$as$u20$pyo3..py_result_ext..PyResultExt$GT$19cast_into_unchecked17h035ac3e234d19acdE', symObjAddr: 0x0, symBinAddr: 0x5F90, symSize: 0x40 }
  - { offset: 0x1B5AF, size: 0x8, addend: 0x0, symName: '__ZN152_$LT$core..result..Result$LT$pyo3..instance..Bound$LT$pyo3..types..any..PyAny$GT$$C$pyo3..err..PyErr$GT$$u20$as$u20$pyo3..py_result_ext..PyResultExt$GT$19cast_into_unchecked17h6bbae6ef99b2a0b2E', symObjAddr: 0x200, symBinAddr: 0x5FD0, symSize: 0x40 }
  - { offset: 0x1B5E5, size: 0x8, addend: 0x0, symName: '__ZN152_$LT$core..result..Result$LT$pyo3..instance..Bound$LT$pyo3..types..any..PyAny$GT$$C$pyo3..err..PyErr$GT$$u20$as$u20$pyo3..py_result_ext..PyResultExt$GT$19cast_into_unchecked17hef9bad8b3c3d68afE', symObjAddr: 0x400, symBinAddr: 0x6010, symSize: 0x40 }
  - { offset: 0x1BC34, size: 0x8, addend: 0x0, symName: '__ZN4core6result19Result$LT$T$C$E$GT$14unwrap_or_else17h51f2977b75c21499E', symObjAddr: 0x2E20, symBinAddr: 0x6430, symSize: 0x8C }
  - { offset: 0x1BCA0, size: 0x8, addend: 0x0, symName: '__ZN4core6result19Result$LT$T$C$E$GT$3map17h0033b280a807132dE', symObjAddr: 0x3004, symBinAddr: 0x64BC, symSize: 0x90 }
  - { offset: 0x1BD4D, size: 0x8, addend: 0x0, symName: '__ZN4core6result19Result$LT$T$C$E$GT$3map17h1fc4d74e5a6adda1E', symObjAddr: 0x328C, symBinAddr: 0x654C, symSize: 0x74 }
  - { offset: 0x1BDF7, size: 0x8, addend: 0x0, symName: '__ZN4core6result19Result$LT$T$C$E$GT$3map17h32915bbb6dcb20d3E', symObjAddr: 0x342C, symBinAddr: 0x65C0, symSize: 0x90 }
  - { offset: 0x1BE8A, size: 0x8, addend: 0x0, symName: '__ZN4core6result19Result$LT$T$C$E$GT$3map17h3bd3f87709b79961E', symObjAddr: 0x34BC, symBinAddr: 0x6650, symSize: 0x90 }
  - { offset: 0x1BF5A, size: 0x8, addend: 0x0, symName: '__ZN4core6result19Result$LT$T$C$E$GT$3map17hac794b037d625d8bE', symObjAddr: 0x3B90, symBinAddr: 0x66E0, symSize: 0x90 }
  - { offset: 0x1C024, size: 0x8, addend: 0x0, symName: '__ZN4core6result19Result$LT$T$C$E$GT$3map17hcb5f2d1435dc59bbE', symObjAddr: 0x3F74, symBinAddr: 0x6770, symSize: 0xA8 }
  - { offset: 0x1C0B8, size: 0x8, addend: 0x0, symName: '__ZN4core6result19Result$LT$T$C$E$GT$3map17hea3ed13b57b2c1dcE', symObjAddr: 0x42EC, symBinAddr: 0x6818, symSize: 0xA0 }
  - { offset: 0x1C158, size: 0x8, addend: 0x0, symName: '__ZN4core6result19Result$LT$T$C$E$GT$6as_ref17h37d7e2764c52553cE', symObjAddr: 0x44AC, symBinAddr: 0x68B8, symSize: 0x68 }
  - { offset: 0x1C1C9, size: 0x8, addend: 0x0, symName: '__ZN4core6result19Result$LT$T$C$E$GT$6expect17h1d3be64eddc210b4E', symObjAddr: 0x458C, symBinAddr: 0x6920, symSize: 0x84 }
  - { offset: 0x1C22B, size: 0x8, addend: 0x0, symName: '__ZN4core6result19Result$LT$T$C$E$GT$6expect17h731b6cb5bd991ab8E', symObjAddr: 0x4808, symBinAddr: 0x69A4, symSize: 0xB0 }
  - { offset: 0x1C28E, size: 0x8, addend: 0x0, symName: '__ZN4core6result19Result$LT$T$C$E$GT$6expect17ha3e99fc97bf888beE', symObjAddr: 0x4968, symBinAddr: 0x6A54, symSize: 0xB0 }
  - { offset: 0x1C2F1, size: 0x8, addend: 0x0, symName: '__ZN4core6result19Result$LT$T$C$E$GT$6expect17hb10ac45820cf9a16E', symObjAddr: 0x4A18, symBinAddr: 0x6B04, symSize: 0xA4 }
  - { offset: 0x1C354, size: 0x8, addend: 0x0, symName: '__ZN4core6result19Result$LT$T$C$E$GT$6expect17hea0403e76b6d19c7E', symObjAddr: 0x4B6C, symBinAddr: 0x6BA8, symSize: 0xB0 }
  - { offset: 0x1C3B7, size: 0x8, addend: 0x0, symName: '__ZN4core6result19Result$LT$T$C$E$GT$6expect17hfae83c148bca8425E', symObjAddr: 0x4C1C, symBinAddr: 0x6C58, symSize: 0x84 }
  - { offset: 0x1C43E, size: 0x8, addend: 0x0, symName: '__ZN4core6result19Result$LT$T$C$E$GT$7map_err17h143f3c088b784ef1E', symObjAddr: 0x4CA0, symBinAddr: 0x6CDC, symSize: 0x30 }
  - { offset: 0x1C4F2, size: 0x8, addend: 0x0, symName: '__ZN4core6result19Result$LT$T$C$E$GT$7map_err17h6cbe57420bddcafdE', symObjAddr: 0x543C, symBinAddr: 0x6D0C, symSize: 0x84 }
  - { offset: 0x1C585, size: 0x8, addend: 0x0, symName: '__ZN4core6result19Result$LT$T$C$E$GT$7map_err17h7364890055740956E', symObjAddr: 0x5544, symBinAddr: 0x6D90, symSize: 0x98 }
  - { offset: 0x1C618, size: 0x8, addend: 0x0, symName: '__ZN4core6result19Result$LT$T$C$E$GT$7map_err17hb87935fa7ba5150cE', symObjAddr: 0x5ADC, symBinAddr: 0x6E28, symSize: 0x30 }
  - { offset: 0x1C68E, size: 0x8, addend: 0x0, symName: '__ZN4core6result19Result$LT$T$C$E$GT$7map_err17hda6db44f528079a9E', symObjAddr: 0x5C4C, symBinAddr: 0x6E58, symSize: 0x84 }
  - { offset: 0x1C72F, size: 0x8, addend: 0x0, symName: '__ZN4core6result19Result$LT$T$C$E$GT$9unwrap_or17h0b3f16f8901afc7cE', symObjAddr: 0x652C, symBinAddr: 0x6EDC, symSize: 0x70 }
  - { offset: 0x1C773, size: 0x8, addend: 0x0, symName: '__ZN4core6result19Result$LT$T$C$E$GT$9unwrap_or17he04458b0784ba736E', symObjAddr: 0x6608, symBinAddr: 0x6F4C, symSize: 0xF4 }
  - { offset: 0x1D9D9, size: 0x8, addend: 0x0, symName: '__ZN104_$LT$core..ops..index_range..IndexRange$u20$as$u20$core..slice..index..SliceIndex$LT$$u5b$T$u5d$$GT$$GT$17get_unchecked_mut18precondition_check17hca54ddd97f4879e1E', symObjAddr: 0x310, symBinAddr: 0x777C, symSize: 0x60 }
  - { offset: 0x1DA38, size: 0x8, addend: 0x0, symName: '__ZN75_$LT$usize$u20$as$u20$core..slice..index..SliceIndex$LT$$u5b$T$u5d$$GT$$GT$13get_unchecked18precondition_check17had9f6676abcece7dE', symObjAddr: 0x78A0, symBinAddr: 0x90C0, symSize: 0x60 }
  - { offset: 0x1DA98, size: 0x8, addend: 0x0, symName: '__ZN73_$LT$$u5b$A$u5d$$u20$as$u20$core..slice..cmp..SlicePartialEq$LT$B$GT$$GT$5equal17hbcced6e0129adf9fE', symObjAddr: 0x778C, symBinAddr: 0x9038, symSize: 0x88 }
  - { offset: 0x1E1CA, size: 0x8, addend: 0x0, symName: '__ZN50_$LT$T$u20$as$u20$core..convert..Into$LT$U$GT$$GT$4into17hfef46f43d34c90a9E', symObjAddr: 0x6C00, symBinAddr: 0x88A4, symSize: 0x30 }
  - { offset: 0x1EEC2, size: 0x8, addend: 0x0, symName: '__ZN4pyo33err5PyErr3new28_$u7b$$u7b$closure$u7d$$u7d$17h314a9f1ebe8b7f16E', symObjAddr: 0x421C, symBinAddr: 0x8220, symSize: 0xC0 }
  - { offset: 0x1EF1A, size: 0x8, addend: 0x0, symName: '__ZN4pyo33err5PyErr3new28_$u7b$$u7b$closure$u7d$$u7d$17h6a2533dbd6a4e8a4E', symObjAddr: 0x49CC, symBinAddr: 0x82E0, symSize: 0xC8 }
  - { offset: 0x1EF72, size: 0x8, addend: 0x0, symName: '__ZN4pyo33err5PyErr3new28_$u7b$$u7b$closure$u7d$$u7d$17h9d223727ef4e1579E', symObjAddr: 0x4FC4, symBinAddr: 0x83A8, symSize: 0xD4 }
  - { offset: 0x1EFD1, size: 0x8, addend: 0x0, symName: '__ZN4pyo33err5PyErr22print_panic_and_unwind28_$u7b$$u7b$closure$u7d$$u7d$17h30551cf66699dbc1E', symObjAddr: 0x269C, symBinAddr: 0x7F5C, symSize: 0x7C }
  - { offset: 0x1F00A, size: 0x8, addend: 0x0, symName: '__ZN4pyo33err5PyErr22print_panic_and_unwind28_$u7b$$u7b$closure$u7d$$u7d$17h7656fb4be61b80faE', symObjAddr: 0x2718, symBinAddr: 0x7FD8, symSize: 0x64 }
  - { offset: 0x1F0A2, size: 0x8, addend: 0x0, symName: '__ZN4pyo33err10cast_error106_$LT$impl$u20$core..convert..From$LT$pyo3..err..cast_error..CastError$GT$$u20$for$u20$pyo3..err..PyErr$GT$4from17h61cf027cb983c19bE', symObjAddr: 0x1170, symBinAddr: 0x7AB4, symSize: 0xE0 }
  - { offset: 0x1F0F1, size: 0x8, addend: 0x0, symName: '__ZN4pyo33err10cast_error110_$LT$impl$u20$core..convert..From$LT$pyo3..err..cast_error..CastIntoError$GT$$u20$for$u20$pyo3..err..PyErr$GT$4from17h6a7ee7206fed785dE', symObjAddr: 0x1250, symBinAddr: 0x7B94, symSize: 0xF8 }
  - { offset: 0x1F1CB, size: 0x8, addend: 0x0, symName: '__ZN78_$LT$pyo3..err..cast_error..DisplayCastError$u20$as$u20$core..fmt..Display$GT$3fmt17h49da12b69af9b78bE', symObjAddr: 0x7960, symBinAddr: 0x9120, symSize: 0x244 }
  - { offset: 0x1F2CB, size: 0x8, addend: 0x0, symName: '__ZN78_$LT$pyo3..err..cast_error..DisplayCastError$u20$as$u20$core..fmt..Display$GT$3fmt28_$u7b$$u7b$closure$u7d$$u7d$17ha3deb270dde07d54E', symObjAddr: 0x7BA4, symBinAddr: 0x9364, symSize: 0x24 }
  - { offset: 0x1F30F, size: 0x8, addend: 0x0, symName: '__ZN78_$LT$pyo3..err..cast_error..DisplayClassInfo$u20$as$u20$core..fmt..Display$GT$3fmt17ha593eb7b2439c375E', symObjAddr: 0x7BC8, symBinAddr: 0x9388, symSize: 0x51C }
  - { offset: 0x1F448, size: 0x8, addend: 0x0, symName: '__ZN78_$LT$pyo3..err..cast_error..DisplayClassInfo$u20$as$u20$core..fmt..Display$GT$3fmt28_$u7b$$u7b$closure$u7d$$u7d$17h7fc209660201e62cE', symObjAddr: 0x80E4, symBinAddr: 0x98A4, symSize: 0x1C }
  - { offset: 0x1F485, size: 0x8, addend: 0x0, symName: '__ZN87_$LT$pyo3..err..cast_error..CastErrorArguments$u20$as$u20$pyo3..err..PyErrArguments$GT$9arguments17hbf0448e56edf5af5E', symObjAddr: 0x8100, symBinAddr: 0x98C0, symSize: 0x1A0 }
  - { offset: 0x1F558, size: 0x8, addend: 0x0, symName: '__ZN47_$LT$T$u20$as$u20$pyo3..err..PyErrArguments$GT$9arguments17hefcced270f809d78E', symObjAddr: 0x4CC, symBinAddr: 0x77DC, symSize: 0x11C }
  - { offset: 0x1F611, size: 0x8, addend: 0x0, symName: __ZN4pyo33err15failed_to_fetch17ha598505c0d2c721eE, symObjAddr: 0x1594, symBinAddr: 0x444E4, symSize: 0x18 }
  - { offset: 0x1F62F, size: 0x8, addend: 0x0, symName: __ZN4pyo33err17error_on_minusone17h50a08bf46c49c02bE, symObjAddr: 0x1674, symBinAddr: 0x7CC4, symSize: 0xC8 }
  - { offset: 0x1F686, size: 0x8, addend: 0x0, symName: '__ZN53_$LT$pyo3..err..PyErr$u20$as$u20$core..fmt..Debug$GT$3fmt17ha88791dc2b863087E', symObjAddr: 0x6C68, symBinAddr: 0x88D4, symSize: 0x40 }
  - { offset: 0x1F6C8, size: 0x8, addend: 0x0, symName: '__ZN53_$LT$pyo3..err..PyErr$u20$as$u20$core..fmt..Debug$GT$3fmt28_$u7b$$u7b$closure$u7d$$u7d$17h605f42a87955f853E', symObjAddr: 0x6CA8, symBinAddr: 0x8914, symSize: 0x178 }
  - { offset: 0x1F72C, size: 0x8, addend: 0x0, symName: '__ZN53_$LT$pyo3..err..PyErr$u20$as$u20$core..fmt..Debug$GT$3fmt28_$u7b$$u7b$closure$u7d$$u7d$28_$u7b$$u7b$closure$u7d$$u7d$17hc4f6ab73a53e8680E', symObjAddr: 0x6E20, symBinAddr: 0x8A8C, symSize: 0x1AC }
  - { offset: 0x1F822, size: 0x8, addend: 0x0, symName: '__ZN55_$LT$pyo3..err..PyErr$u20$as$u20$core..fmt..Display$GT$3fmt17h9b8d3849164b6df8E', symObjAddr: 0x6FCC, symBinAddr: 0x8C38, symSize: 0x34 }
  - { offset: 0x1F864, size: 0x8, addend: 0x0, symName: '__ZN55_$LT$pyo3..err..PyErr$u20$as$u20$core..fmt..Display$GT$3fmt28_$u7b$$u7b$closure$u7d$$u7d$17hea9f507babf180feE', symObjAddr: 0x7000, symBinAddr: 0x8C6C, symSize: 0x3B0 }
  - { offset: 0x1F9CD, size: 0x8, addend: 0x0, symName: '__ZN55_$LT$pyo3..err..PyErr$u20$as$u20$core..fmt..Display$GT$3fmt28_$u7b$$u7b$closure$u7d$$u7d$28_$u7b$$u7b$closure$u7d$$u7d$17h7783492a94643451E', symObjAddr: 0x73B0, symBinAddr: 0x901C, symSize: 0x1C }
  - { offset: 0x1FEF3, size: 0x8, addend: 0x0, symName: __ZN4pyo321interpreter_lifecycle5START17hb6af253c70382d70E, symObjAddr: 0xBE60, symBinAddr: 0x6C408, symSize: 0x0 }
  - { offset: 0x1FF00, size: 0x8, addend: 0x0, symName: __ZN4pyo321interpreter_lifecycle10initialize17h5d572c526ca1064cE, symObjAddr: 0x1054, symBinAddr: 0x7998, symSize: 0x1C }
  - { offset: 0x1FF1E, size: 0x8, addend: 0x0, symName: '__ZN4pyo321interpreter_lifecycle10initialize28_$u7b$$u7b$closure$u7d$$u7d$17h425e4cdf966729edE', symObjAddr: 0x1070, symBinAddr: 0x79B4, symSize: 0x38 }
  - { offset: 0x1FF54, size: 0x8, addend: 0x0, symName: __ZN4pyo321interpreter_lifecycle18ensure_initialized17h528cd15c738c461bE, symObjAddr: 0x10A8, symBinAddr: 0x79EC, symSize: 0x38 }
  - { offset: 0x1FF72, size: 0x8, addend: 0x0, symName: '__ZN4pyo321interpreter_lifecycle18ensure_initialized28_$u7b$$u7b$closure$u7d$$u7d$17h857389807756a3e3E', symObjAddr: 0x10E0, symBinAddr: 0x7A24, symSize: 0x90 }
  - { offset: 0x2017C, size: 0x8, addend: 0x0, symName: __ZN4pyo310conversion15IntoPyObjectExt17into_bound_py_any17h93a30e1815cf75dfE, symObjAddr: 0x874, symBinAddr: 0x78F8, symSize: 0x54 }
  - { offset: 0x201E7, size: 0x8, addend: 0x0, symName: __ZN4pyo310conversion15IntoPyObjectExt22into_pyobject_or_pyerr17hae59da9472612222E, symObjAddr: 0xACC, symBinAddr: 0x794C, symSize: 0x4C }
  - { offset: 0x20B5B, size: 0x8, addend: 0x0, symName: '__ZN9once_cell4sync17OnceCell$LT$T$GT$11get_or_init28_$u7b$$u7b$closure$u7d$$u7d$17h36f6554cdd2cf0aaE', symObjAddr: 0x85B4, symBinAddr: 0x9AEC, symSize: 0x34 }
  - { offset: 0x20B9D, size: 0x8, addend: 0x0, symName: '__ZN9once_cell4sync17OnceCell$LT$T$GT$11get_or_init28_$u7b$$u7b$closure$u7d$$u7d$17h42d136a8f6372deeE', symObjAddr: 0x85E8, symBinAddr: 0x9B20, symSize: 0x38 }
  - { offset: 0x20D51, size: 0x8, addend: 0x0, symName: __ZN4pyo33err10cast_error13CastIntoError3new17h79ac26ef47b83a17E, symObjAddr: 0x1380, symBinAddr: 0x7C8C, symSize: 0x1C }
  - { offset: 0x20D81, size: 0x8, addend: 0x0, symName: __ZN4pyo33err10cast_error9CastError3new17h4d16bd057e8ed541E, symObjAddr: 0x139C, symBinAddr: 0x7CA8, symSize: 0x1C }
  - { offset: 0x20DB1, size: 0x8, addend: 0x0, symName: __ZN4pyo33err5PyErr10from_state17hd32a9eb5c25c5670E, symObjAddr: 0x1804, symBinAddr: 0x7D8C, symSize: 0x30 }
  - { offset: 0x20DE2, size: 0x8, addend: 0x0, symName: __ZN4pyo33err5PyErr10normalized17h0af51b2489e37c46E, symObjAddr: 0x1B10, symBinAddr: 0x7DBC, symSize: 0x24 }
  - { offset: 0x20E27, size: 0x8, addend: 0x0, symName: __ZN4pyo33err5PyErr11is_instance17h476ca8a4eb1ec9b4E, symObjAddr: 0x1B34, symBinAddr: 0x7DE0, symSize: 0xA0 }
  - { offset: 0x20EB1, size: 0x8, addend: 0x0, symName: __ZN4pyo33err5PyErr14is_instance_of17h97a44f7b33a12889E, symObjAddr: 0x210C, symBinAddr: 0x7E80, symSize: 0x84 }
  - { offset: 0x20EF8, size: 0x8, addend: 0x0, symName: __ZN4pyo33err5PyErr16write_unraisable17h28c407e24d4f325fE, symObjAddr: 0x2424, symBinAddr: 0x7F04, symSize: 0x58 }
  - { offset: 0x20F53, size: 0x8, addend: 0x0, symName: __ZN4pyo33err5PyErr22print_panic_and_unwind17h790c273d40b56835E, symObjAddr: 0x247C, symBinAddr: 0x444FC, symSize: 0x220 }
  - { offset: 0x20FD5, size: 0x8, addend: 0x0, symName: __ZN4pyo33err5PyErr3new17h30dd573a279a224fE, symObjAddr: 0x2AB8, symBinAddr: 0x803C, symSize: 0x9C }
  - { offset: 0x21033, size: 0x8, addend: 0x0, symName: __ZN4pyo33err5PyErr3new17h6e61f3b0039ee27fE, symObjAddr: 0x3218, symBinAddr: 0x80D8, symSize: 0xA8 }
  - { offset: 0x21091, size: 0x8, addend: 0x0, symName: __ZN4pyo33err5PyErr3new17hd354607458197b72E, symObjAddr: 0x3970, symBinAddr: 0x8180, symSize: 0xA0 }
  - { offset: 0x210E3, size: 0x8, addend: 0x0, symName: __ZN4pyo33err5PyErr4take17h8c3860c8e2a687e4E, symObjAddr: 0x5CC4, symBinAddr: 0x847C, symSize: 0x13C }
  - { offset: 0x2118F, size: 0x8, addend: 0x0, symName: __ZN4pyo33err5PyErr5fetch17ha898119115426cd0E, symObjAddr: 0x5EB8, symBinAddr: 0x85B8, symSize: 0x3C }
  - { offset: 0x211CB, size: 0x8, addend: 0x0, symName: __ZN4pyo33err5PyErr5value17had8b2ec6231cd97fE, symObjAddr: 0x5F30, symBinAddr: 0x85F4, symSize: 0x28 }
  - { offset: 0x21206, size: 0x8, addend: 0x0, symName: __ZN4pyo33err5PyErr7restore17hbf93715cf6df8eedE, symObjAddr: 0x5F84, symBinAddr: 0x861C, symSize: 0x38 }
  - { offset: 0x21245, size: 0x8, addend: 0x0, symName: __ZN4pyo33err5PyErr8get_type17hb8dd233e0befe283E, symObjAddr: 0x5FBC, symBinAddr: 0x8654, symSize: 0x28 }
  - { offset: 0x212A7, size: 0x8, addend: 0x0, symName: __ZN4pyo33err5PyErr8new_type17h1763ebb0c252b29cE, symObjAddr: 0x5FE4, symBinAddr: 0x867C, symSize: 0x200 }
  - { offset: 0x213DE, size: 0x8, addend: 0x0, symName: __ZN4pyo33err5PyErr9traceback17h14ce728fc7395835E, symObjAddr: 0x63C4, symBinAddr: 0x887C, symSize: 0x28 }
  - { offset: 0x21475, size: 0x8, addend: 0x0, symName: '__ZN9once_cell4sync17OnceCell$LT$T$GT$11get_or_init17h4a31c63a4fd3718bE', symObjAddr: 0x8528, symBinAddr: 0x9A60, symSize: 0x48 }
  - { offset: 0x214D4, size: 0x8, addend: 0x0, symName: '__ZN9once_cell4sync17OnceCell$LT$T$GT$11get_or_init17hc1362508f8287c0aE', symObjAddr: 0x8570, symBinAddr: 0x9AA8, symSize: 0x44 }
  - { offset: 0x21519, size: 0x8, addend: 0x0, symName: '__ZN9once_cell4sync17OnceCell$LT$T$GT$13get_unchecked17h086a0e9945040d6cE', symObjAddr: 0x8620, symBinAddr: 0x9B58, symSize: 0x24 }
  - { offset: 0x21545, size: 0x8, addend: 0x0, symName: '__ZN9once_cell4sync17OnceCell$LT$T$GT$13get_unchecked17h63a789717ea7c223E', symObjAddr: 0x86B0, symBinAddr: 0x9B7C, symSize: 0x24 }
  - { offset: 0x21571, size: 0x8, addend: 0x0, symName: '__ZN9once_cell4sync17OnceCell$LT$T$GT$15get_or_try_init17h0069b4a721931887E', symObjAddr: 0x86F8, symBinAddr: 0x9BA0, symSize: 0x150 }
  - { offset: 0x215D5, size: 0x8, addend: 0x0, symName: '__ZN9once_cell4sync17OnceCell$LT$T$GT$15get_or_try_init17h4a29fac7acee2b83E', symObjAddr: 0x8BD8, symBinAddr: 0x9CF0, symSize: 0x14C }
  - { offset: 0x21646, size: 0x8, addend: 0x0, symName: '__ZN9once_cell4sync17OnceCell$LT$T$GT$3get17h1747e145cf6fc596E', symObjAddr: 0x9450, symBinAddr: 0x9E3C, symSize: 0x4C }
  - { offset: 0x21672, size: 0x8, addend: 0x0, symName: '__ZN9once_cell4sync17OnceCell$LT$T$GT$3get17h9776266c1b385d3cE', symObjAddr: 0x9534, symBinAddr: 0x9E88, symSize: 0x4C }
  - { offset: 0x21906, size: 0x8, addend: 0x0, symName: '__ZN79_$LT$pyo3..types..string..PyString$u20$as$u20$pyo3..type_object..PyTypeInfo$GT$10is_type_of17hcf5986d0eb298c19E', symObjAddr: 0x61A0, symBinAddr: 0xABA0, symSize: 0x30 }
  - { offset: 0x21932, size: 0x8, addend: 0x0, symName: '__ZN79_$LT$pyo3..types..string..PyString$u20$as$u20$pyo3..type_object..PyTypeInfo$GT$15type_object_raw17h4b0e5fa39d87157bE', symObjAddr: 0x61D0, symBinAddr: 0xABD0, symSize: 0x24 }
  - { offset: 0x2196E, size: 0x8, addend: 0x0, symName: '__ZN79_$LT$pyo3..types..string..PyString$u20$as$u20$pyo3..type_object..PyTypeInfo$GT$15type_object_raw28_$u7b$$u7b$closure$u7d$$u7d$17ha34ba6e778eb0e12E', symObjAddr: 0x61F4, symBinAddr: 0xABF4, symSize: 0x18 }
  - { offset: 0x219D0, size: 0x8, addend: 0x0, symName: __ZN4pyo35types6module7__all__8INTERNED17h4abc5b17b6280bfeE, symObjAddr: 0x8928, symBinAddr: 0x6C410, symSize: 0x0 }
  - { offset: 0x219E8, size: 0x8, addend: 0x0, symName: '__ZN115_$LT$pyo3..instance..Bound$LT$pyo3..types..module..PyModule$GT$$u20$as$u20$pyo3..types..module..PyModuleMethods$GT$3add5inner17he9fa95252582c0fdE', symObjAddr: 0x2DC, symBinAddr: 0x9ED4, symSize: 0x140 }
  - { offset: 0x21A77, size: 0x8, addend: 0x0, symName: __ZN4pyo35types6module7__all__17ha0e9324c00aa92e1E, symObjAddr: 0x2E04, symBinAddr: 0xA46C, symSize: 0x24 }
  - { offset: 0x21B4F, size: 0x8, addend: 0x0, symName: '__ZN79_$LT$pyo3..types..module..PyModule$u20$as$u20$pyo3..type_object..PyTypeInfo$GT$10is_type_of17h0919fe9a9b68b9b0E', symObjAddr: 0x603C, symBinAddr: 0xAB34, symSize: 0x30 }
  - { offset: 0x21B7B, size: 0x8, addend: 0x0, symName: '__ZN79_$LT$pyo3..types..module..PyModule$u20$as$u20$pyo3..type_object..PyTypeInfo$GT$15type_object_raw17h9cdbf4f9155b7981E', symObjAddr: 0x606C, symBinAddr: 0xAB64, symSize: 0x24 }
  - { offset: 0x21BB7, size: 0x8, addend: 0x0, symName: '__ZN79_$LT$pyo3..types..module..PyModule$u20$as$u20$pyo3..type_object..PyTypeInfo$GT$15type_object_raw28_$u7b$$u7b$closure$u7d$$u7d$17hc2c95b7c2647a849E', symObjAddr: 0x6090, symBinAddr: 0xAB88, symSize: 0x18 }
  - { offset: 0x22094, size: 0x8, addend: 0x0, symName: '__ZN79_$LT$pyo3..exceptions..PyTypeError$u20$as$u20$pyo3..type_object..PyTypeInfo$GT$15type_object_raw17h6fd69b24b42762e8E', symObjAddr: 0x5DDC, symBinAddr: 0xAAC4, symSize: 0x24 }
  - { offset: 0x220D0, size: 0x8, addend: 0x0, symName: '__ZN79_$LT$pyo3..exceptions..PyTypeError$u20$as$u20$pyo3..type_object..PyTypeInfo$GT$15type_object_raw28_$u7b$$u7b$closure$u7d$$u7d$17h39869989efe39c02E', symObjAddr: 0x5E00, symBinAddr: 0xAAE8, symSize: 0x4C }
  - { offset: 0x22123, size: 0x8, addend: 0x0, symName: '__ZN83_$LT$pyo3..exceptions..PyBaseException$u20$as$u20$pyo3..type_object..PyTypeInfo$GT$15type_object_raw17h80f919ad96ec8951E', symObjAddr: 0x66FC, symBinAddr: 0xAC0C, symSize: 0x24 }
  - { offset: 0x2215F, size: 0x8, addend: 0x0, symName: '__ZN83_$LT$pyo3..exceptions..PyBaseException$u20$as$u20$pyo3..type_object..PyTypeInfo$GT$15type_object_raw28_$u7b$$u7b$closure$u7d$$u7d$17h7692daeee401b7c9E', symObjAddr: 0x6720, symBinAddr: 0xAC30, symSize: 0x4C }
  - { offset: 0x221B2, size: 0x8, addend: 0x0, symName: '__ZN84_$LT$pyo3..exceptions..PyAttributeError$u20$as$u20$pyo3..type_object..PyTypeInfo$GT$15type_object_raw17h3106168e6a920578E', symObjAddr: 0x699C, symBinAddr: 0xAC7C, symSize: 0x24 }
  - { offset: 0x221EE, size: 0x8, addend: 0x0, symName: '__ZN84_$LT$pyo3..exceptions..PyAttributeError$u20$as$u20$pyo3..type_object..PyTypeInfo$GT$15type_object_raw28_$u7b$$u7b$closure$u7d$$u7d$17hfd7aa96112d2653cE', symObjAddr: 0x69C0, symBinAddr: 0xACA0, symSize: 0x4C }
  - { offset: 0x222DD, size: 0x8, addend: 0x0, symName: __ZN4pyo311type_object10PyTypeInfo11type_object17h6e32985db9d2a071E, symObjAddr: 0x27D0, symBinAddr: 0xA37C, symSize: 0x30 }
  - { offset: 0x2231D, size: 0x8, addend: 0x0, symName: __ZN4pyo311type_object10PyTypeInfo11type_object17h8f7b635bb5da4ed6E, symObjAddr: 0x2830, symBinAddr: 0xA3AC, symSize: 0x30 }
  - { offset: 0x2235D, size: 0x8, addend: 0x0, symName: __ZN4pyo311type_object10PyTypeInfo11type_object17h9f4e920cab2c193cE, symObjAddr: 0x28C0, symBinAddr: 0xA3DC, symSize: 0x30 }
  - { offset: 0x2239D, size: 0x8, addend: 0x0, symName: __ZN4pyo311type_object10PyTypeInfo11type_object17hd646864142ef97d9E, symObjAddr: 0x2AD0, symBinAddr: 0xA40C, symSize: 0x30 }
  - { offset: 0x223DD, size: 0x8, addend: 0x0, symName: __ZN4pyo311type_object10PyTypeInfo11type_object17hfdcdec215f390182E, symObjAddr: 0x2B90, symBinAddr: 0xA43C, symSize: 0x30 }
  - { offset: 0x22423, size: 0x8, addend: 0x0, symName: '__ZN52_$LT$T$u20$as$u20$pyo3..type_object..PyTypeCheck$GT$10type_check17h81e45ca928a6bc89E', symObjAddr: 0x4EA8, symBinAddr: 0xA970, symSize: 0x24 }
  - { offset: 0x22458, size: 0x8, addend: 0x0, symName: '__ZN52_$LT$T$u20$as$u20$pyo3..type_object..PyTypeCheck$GT$10type_check17hda1a7617aa3defc7E', symObjAddr: 0x4F80, symBinAddr: 0xA994, symSize: 0x24 }
  - { offset: 0x2248D, size: 0x8, addend: 0x0, symName: '__ZN52_$LT$T$u20$as$u20$pyo3..type_object..PyTypeCheck$GT$16classinfo_object17h8759492162150d07E', symObjAddr: 0x5064, symBinAddr: 0xA9B8, symSize: 0x20 }
  - { offset: 0x224CD, size: 0x8, addend: 0x0, symName: '__ZN52_$LT$T$u20$as$u20$pyo3..type_object..PyTypeCheck$GT$16classinfo_object17he268b5714c18657fE', symObjAddr: 0x50E4, symBinAddr: 0xA9D8, symSize: 0x20 }
  - { offset: 0x22CEF, size: 0x8, addend: 0x0, symName: __ZN4core9panicking13panic_display17h5ecab9a752887c0aE, symObjAddr: 0x1914, symBinAddr: 0xA2F4, symSize: 0x5C }
  - { offset: 0x23505, size: 0x8, addend: 0x0, symName: __ZN8pyo3_ffi12moduleobject14PyModule_Check17h869fd8d742107333E, symObjAddr: 0x6E68, symBinAddr: 0xACEC, symSize: 0x2C }
  - { offset: 0x2369E, size: 0x8, addend: 0x0, symName: '__ZN66_$LT$std..thread..id..ThreadId$u20$as$u20$core..cmp..PartialEq$GT$2eq17heff91c1b181b2634E', symObjAddr: 0x5224, symBinAddr: 0xA9F8, symSize: 0x2C }
  - { offset: 0x23976, size: 0x8, addend: 0x0, symName: __ZN3std4sync6poison10map_result17hef0b103cee6a9279E, symObjAddr: 0xC08, symBinAddr: 0xA014, symSize: 0xC4 }
  - { offset: 0x23A0A, size: 0x8, addend: 0x0, symName: __ZN3std4sync6poison10map_result17hef6aec939480ad59E, symObjAddr: 0xCCC, symBinAddr: 0xA0D8, symSize: 0xC4 }
  - { offset: 0x23AD6, size: 0x8, addend: 0x0, symName: '__ZN76_$LT$std..sync..poison..PoisonError$LT$T$GT$$u20$as$u20$core..fmt..Debug$GT$3fmt17h22bc0d7c064f9f67E', symObjAddr: 0x5BC4, symBinAddr: 0xAA24, symSize: 0x50 }
  - { offset: 0x23B19, size: 0x8, addend: 0x0, symName: '__ZN76_$LT$std..sync..poison..PoisonError$LT$T$GT$$u20$as$u20$core..fmt..Debug$GT$3fmt17hbdf6dcc099f2a9ecE', symObjAddr: 0x5C14, symBinAddr: 0xAA74, symSize: 0x50 }
  - { offset: 0x24068, size: 0x8, addend: 0x0, symName: __ZN3std4sync6poison4Flag4done17ha25ffef59279ea2dE, symObjAddr: 0xD90, symBinAddr: 0xA19C, symSize: 0x8C }
  - { offset: 0x24156, size: 0x8, addend: 0x0, symName: __ZN3std4sync6poison4Flag5guard17h35d20fc2fe8e64a8E, symObjAddr: 0xE1C, symBinAddr: 0xA228, symSize: 0xCC }
  - { offset: 0x24315, size: 0x8, addend: 0x0, symName: __ZN4pyo310exceptions11PyTypeError7new_err17h09d1822d54243e06E, symObjAddr: 0x1970, symBinAddr: 0xA350, symSize: 0x2C }
  - { offset: 0x2436E, size: 0x8, addend: 0x0, symName: __ZN4pyo35types6module8PyModule3new17h8a091685abc25fd6E, symObjAddr: 0x2E28, symBinAddr: 0xA490, symSize: 0x1E0 }
  - { offset: 0x24419, size: 0x8, addend: 0x0, symName: __ZN4pyo35types6module8PyModule6import17h0005f1796041e656E, symObjAddr: 0x3008, symBinAddr: 0xA670, symSize: 0xF8 }
  - { offset: 0x244B1, size: 0x8, addend: 0x0, symName: __ZN4pyo35types6module8PyModule6import17h9439842ad8374afdE, symObjAddr: 0x3100, symBinAddr: 0xA768, symSize: 0x114 }
  - { offset: 0x24556, size: 0x8, addend: 0x0, symName: __ZN4pyo35types6string8PyString3new17h371f3826ef3fbe32E, symObjAddr: 0x353C, symBinAddr: 0xA87C, symSize: 0x68 }
  - { offset: 0x245CB, size: 0x8, addend: 0x0, symName: __ZN4pyo35types6string8PyString6intern17ha8f481c6071cc70cE, symObjAddr: 0x35A4, symBinAddr: 0xA8E4, symSize: 0x8C }
  - { offset: 0x2479B, size: 0x8, addend: 0x0, symName: '__ZN81_$LT$pyo3..types..typeobject..PyType$u20$as$u20$pyo3..type_object..PyTypeInfo$GT$10is_type_of17hbc98a2ad23ca81e0E', symObjAddr: 0x8F40, symBinAddr: 0xCEAC, symSize: 0x30 }
  - { offset: 0x247C7, size: 0x8, addend: 0x0, symName: '__ZN81_$LT$pyo3..types..typeobject..PyType$u20$as$u20$pyo3..type_object..PyTypeInfo$GT$15type_object_raw17h1d6bfd2f482b7554E', symObjAddr: 0x8F70, symBinAddr: 0xCEDC, symSize: 0x24 }
  - { offset: 0x24803, size: 0x8, addend: 0x0, symName: '__ZN81_$LT$pyo3..types..typeobject..PyType$u20$as$u20$pyo3..type_object..PyTypeInfo$GT$15type_object_raw28_$u7b$$u7b$closure$u7d$$u7d$17h342cd1132c0c2fffE', symObjAddr: 0x8F94, symBinAddr: 0xCF00, symSize: 0x18 }
  - { offset: 0x2488D, size: 0x8, addend: 0x0, symName: '__ZN103_$LT$pyo3..instance..Bound$LT$pyo3..types..any..PyAny$GT$$u20$as$u20$pyo3..types..any..PyAnyMethods$GT$7getattr5inner17h271601349f134847E', symObjAddr: 0xBC4, symBinAddr: 0xAD18, symSize: 0x6C }
  - { offset: 0x248D0, size: 0x8, addend: 0x0, symName: '__ZN103_$LT$pyo3..instance..Bound$LT$pyo3..types..any..PyAny$GT$$u20$as$u20$pyo3..types..any..PyAnyMethods$GT$7setattr5inner17h6fd89c71d0c30d0aE', symObjAddr: 0xD98, symBinAddr: 0xAD84, symSize: 0x7C }
  - { offset: 0x24922, size: 0x8, addend: 0x0, symName: '__ZN103_$LT$pyo3..instance..Bound$LT$pyo3..types..any..PyAny$GT$$u20$as$u20$pyo3..types..any..PyAnyMethods$GT$8set_item5inner17h2fecf54c51c7325eE', symObjAddr: 0xFCC, symBinAddr: 0xAE00, symSize: 0x7C }
  - { offset: 0x24980, size: 0x8, addend: 0x0, symName: '__ZN107_$LT$pyo3..instance..Bound$LT$pyo3..types..list..PyList$GT$$u20$as$u20$pyo3..types..list..PyListMethods$GT$6append5inner17h1ccf896a9aeefaa7E', symObjAddr: 0x13E4, symBinAddr: 0xAE7C, symSize: 0x60 }
  - { offset: 0x249EE, size: 0x8, addend: 0x0, symName: '__ZN75_$LT$pyo3..types..list..PyList$u20$as$u20$pyo3..type_object..PyTypeInfo$GT$10is_type_of17he3808b9e6940a4fcE', symObjAddr: 0x8B4C, symBinAddr: 0xCB8C, symSize: 0x30 }
  - { offset: 0x24A1A, size: 0x8, addend: 0x0, symName: '__ZN75_$LT$pyo3..types..list..PyList$u20$as$u20$pyo3..type_object..PyTypeInfo$GT$15type_object_raw17h260d18c5871845d5E', symObjAddr: 0x8B7C, symBinAddr: 0xCBBC, symSize: 0x24 }
  - { offset: 0x24A56, size: 0x8, addend: 0x0, symName: '__ZN75_$LT$pyo3..types..list..PyList$u20$as$u20$pyo3..type_object..PyTypeInfo$GT$15type_object_raw28_$u7b$$u7b$closure$u7d$$u7d$17hbd4ed3e316d1ccbaE', symObjAddr: 0x8BA0, symBinAddr: 0xCBE0, symSize: 0x18 }
  - { offset: 0x24B87, size: 0x8, addend: 0x0, symName: __ZN4pyo35types5tuple16array_into_tuple17hc3537265b438bdd5E, symObjAddr: 0x5380, symBinAddr: 0xBEE4, symSize: 0x1FC }
  - { offset: 0x24CA0, size: 0x8, addend: 0x0, symName: '__ZN4pyo35types5tuple74_$LT$impl$u20$pyo3..conversion..IntoPyObject$u20$for$u20$$LP$T0$C$$RP$$GT$13into_pyobject17hc269126e5ee45ec2E', symObjAddr: 0x7200, symBinAddr: 0xC1B0, symSize: 0xCC }
  - { offset: 0x24D1A, size: 0x8, addend: 0x0, symName: '__ZN77_$LT$pyo3..types..tuple..PyTuple$u20$as$u20$pyo3..type_object..PyTypeInfo$GT$10is_type_of17h9e83b61766c4ec49E', symObjAddr: 0x8D48, symBinAddr: 0xCD88, symSize: 0x30 }
  - { offset: 0x24D46, size: 0x8, addend: 0x0, symName: '__ZN77_$LT$pyo3..types..tuple..PyTuple$u20$as$u20$pyo3..type_object..PyTypeInfo$GT$15type_object_raw17hbb55570fd592179fE', symObjAddr: 0x8D78, symBinAddr: 0xCDB8, symSize: 0x24 }
  - { offset: 0x24D82, size: 0x8, addend: 0x0, symName: '__ZN77_$LT$pyo3..types..tuple..PyTuple$u20$as$u20$pyo3..type_object..PyTypeInfo$GT$15type_object_raw28_$u7b$$u7b$closure$u7d$$u7d$17ha0bff8b1f4c1c812E', symObjAddr: 0x8D9C, symBinAddr: 0xCDDC, symSize: 0x18 }
  - { offset: 0x24DD1, size: 0x8, addend: 0x0, symName: '__ZN97_$LT$pyo3..types..tuple..BoundTupleIterator$u20$as$u20$core..iter..traits..iterator..Iterator$GT$4next17h1d84c548c209471fE', symObjAddr: 0x94D4, symBinAddr: 0xD120, symSize: 0xD0 }
  - { offset: 0x24E66, size: 0x8, addend: 0x0, symName: '__ZN75_$LT$pyo3..types..none..PyNone$u20$as$u20$pyo3..type_object..PyTypeInfo$GT$15type_object_raw17h42936ca3487d4352E', symObjAddr: 0x8BB8, symBinAddr: 0xCBF8, symSize: 0x20 }
  - { offset: 0x25219, size: 0x8, addend: 0x0, symName: __ZN4pyo35impl_10trampoline33panic_result_into_callback_output17hcbc0f72f5be9bf64E, symObjAddr: 0x3974, symBinAddr: 0xBCF8, symSize: 0x12C }
  - { offset: 0x252FB, size: 0x8, addend: 0x0, symName: '__ZN4pyo33err9err_state10PyErrState10normalized28_$u7b$$u7b$closure$u7d$$u7d$17h7823f6fd78d1f758E', symObjAddr: 0x24BC, symBinAddr: 0xB42C, symSize: 0xC }
  - { offset: 0x2532C, size: 0x8, addend: 0x0, symName: '__ZN4pyo33err9err_state10PyErrState15make_normalized28_$u7b$$u7b$closure$u7d$$u7d$17h61b3925ac7296d23E', symObjAddr: 0x29AC, symBinAddr: 0xB538, symSize: 0x34 }
  - { offset: 0x2535B, size: 0x8, addend: 0x0, symName: '__ZN4pyo33err9err_state10PyErrState15make_normalized28_$u7b$$u7b$closure$u7d$$u7d$28_$u7b$$u7b$closure$u7d$$u7d$17h6c115d7a79d34b8eE', symObjAddr: 0x29E0, symBinAddr: 0xB56C, symSize: 0x360 }
  - { offset: 0x2540D, size: 0x8, addend: 0x0, symName: '__ZN4pyo33err9err_state10PyErrState15make_normalized28_$u7b$$u7b$closure$u7d$$u7d$28_$u7b$$u7b$closure$u7d$$u7d$28_$u7b$$u7b$closure$u7d$$u7d$17h2f4393fa0bbf9a7dE', symObjAddr: 0x2D40, symBinAddr: 0xB8CC, symSize: 0x38 }
  - { offset: 0x2564C, size: 0x8, addend: 0x0, symName: __ZN4pyo33err9err_state10raise_lazy17h361b57c6ff680784E, symObjAddr: 0x2E60, symBinAddr: 0xB9EC, symSize: 0x130 }
  - { offset: 0x256E0, size: 0x8, addend: 0x0, symName: '__ZN4pyo33err9err_state20PyErrStateNormalized10ptraceback28_$u7b$$u7b$closure$u7d$$u7d$17hc5cacd5405df225eE', symObjAddr: 0x30D0, symBinAddr: 0xBC5C, symSize: 0x24 }
  - { offset: 0x25723, size: 0x8, addend: 0x0, symName: '__ZN4pyo33err9err_state20PyErrStateNormalized4take28_$u7b$$u7b$closure$u7d$$u7d$17h8f070de6e3d23affE', symObjAddr: 0x3144, symBinAddr: 0xBCA4, symSize: 0x28 }
  - { offset: 0x2579F, size: 0x8, addend: 0x0, symName: '__ZN4pyo38internal5state12ATTACH_COUNT29_$u7b$$u7b$constant$u7d$$u7d$28_$u7b$$u7b$closure$u7d$$u7d$23__RUST_STD_INTERNAL_VAL17h3cca6cc876096de6E', symObjAddr: 0xBA74, symBinAddr: 0x6CE28, symSize: 0x0 }
  - { offset: 0x257AE, size: 0x8, addend: 0x0, symName: '__ZN4pyo38internal5state12ATTACH_COUNT29_$u7b$$u7b$constant$u7d$$u7d$28_$u7b$$u7b$closure$u7d$$u7d$17h2f9a8f8235be2b46E', symObjAddr: 0x7C9C, symBinAddr: 0xC474, symSize: 0x30 }
  - { offset: 0x257F6, size: 0x8, addend: 0x0, symName: __ZN4pyo38internal5state4POOL17ha775d23d58665050E, symObjAddr: 0xBA18, symBinAddr: 0x6C430, symSize: 0x0 }
  - { offset: 0x25925, size: 0x8, addend: 0x0, symName: '__ZN4pyo38internal5state11AttachGuard10try_attach28_$u7b$$u7b$closure$u7d$$u7d$17h60f4c4c79f035e61E', symObjAddr: 0x7AF0, symBinAddr: 0xC358, symSize: 0x24 }
  - { offset: 0x259AB, size: 0x8, addend: 0x0, symName: '__ZN4pyo38internal5state13SuspendAttach3new28_$u7b$$u7b$closure$u7d$$u7d$17he57bcc1ba8eaab08E', symObjAddr: 0x8100, symBinAddr: 0xC8D8, symSize: 0x28 }
  - { offset: 0x25A37, size: 0x8, addend: 0x0, symName: __ZN4pyo38internal5state15register_decref17h7ee0121cde76edacE, symObjAddr: 0x81F8, symBinAddr: 0xC900, symSize: 0x2C }
  - { offset: 0x25A66, size: 0x8, addend: 0x0, symName: '__ZN4pyo38internal5state18thread_is_attached28_$u7b$$u7b$closure$u7d$$u7d$17h0279086dbf2dbbcaE', symObjAddr: 0x8278, symBinAddr: 0xC92C, symSize: 0x2C }
  - { offset: 0x25AA9, size: 0x8, addend: 0x0, symName: '__ZN4pyo38internal5state22decrement_attach_count28_$u7b$$u7b$closure$u7d$$u7d$17hf703c48f58760ec1E', symObjAddr: 0x82A4, symBinAddr: 0xC958, symSize: 0x8C }
  - { offset: 0x25B01, size: 0x8, addend: 0x0, symName: '__ZN4pyo38internal5state22increment_attach_count28_$u7b$$u7b$closure$u7d$$u7d$17he7b6717a9fbdd986E', symObjAddr: 0x8330, symBinAddr: 0xC9E4, symSize: 0x74 }
  - { offset: 0x25B54, size: 0x8, addend: 0x0, symName: __ZN4pyo38internal5state24drop_deferred_references17he5fdfb3ac3ddd448E, symObjAddr: 0x83A4, symBinAddr: 0xCA58, symSize: 0x4C }
  - { offset: 0x25BA4, size: 0x8, addend: 0x0, symName: __ZN4pyo38internal5state8get_pool17he83c19ef89adcfb4E, symObjAddr: 0x83F0, symBinAddr: 0xCAA4, symSize: 0x1C }
  - { offset: 0x25BD3, size: 0x8, addend: 0x0, symName: '__ZN76_$LT$pyo3..internal..state..AttachGuard$u20$as$u20$core..ops..drop..Drop$GT$4drop17h7cbb1418aa9530f8E', symObjAddr: 0x8BD8, symBinAddr: 0xCC18, symSize: 0x5C }
  - { offset: 0x25C32, size: 0x8, addend: 0x0, symName: '__ZN78_$LT$pyo3..internal..state..SuspendAttach$u20$as$u20$core..ops..drop..Drop$GT$4drop17h300829d707293f35E', symObjAddr: 0x8DB4, symBinAddr: 0xCDF4, symSize: 0x80 }
  - { offset: 0x25C7D, size: 0x8, addend: 0x0, symName: '__ZN78_$LT$pyo3..internal..state..SuspendAttach$u20$as$u20$core..ops..drop..Drop$GT$4drop28_$u7b$$u7b$closure$u7d$$u7d$17he1f1f8b1c978c4f1E', symObjAddr: 0x8E34, symBinAddr: 0xCE74, symSize: 0x38 }
  - { offset: 0x25CD5, size: 0x8, addend: 0x0, symName: '__ZN77_$LT$pyo3..panic..PanicException$u20$as$u20$pyo3..type_object..PyTypeInfo$GT$15type_object_raw11TYPE_OBJECT17h11f9a908c91c27f1E', symObjAddr: 0x40BD0, symBinAddr: 0x6CF30, symSize: 0x0 }
  - { offset: 0x25CE2, size: 0x8, addend: 0x0, symName: '__ZN77_$LT$pyo3..panic..PanicException$u20$as$u20$pyo3..type_object..PyTypeInfo$GT$15type_object_raw28_$u7b$$u7b$closure$u7d$$u7d$17hfe5ab760767e5293E', symObjAddr: 0x8C68, symBinAddr: 0xCCA8, symSize: 0xE0 }
  - { offset: 0x25D2D, size: 0x8, addend: 0x0, symName: '__ZN77_$LT$pyo3..panic..PanicException$u20$as$u20$pyo3..type_object..PyTypeInfo$GT$15type_object_raw17h7a28ca7edaec540eE', symObjAddr: 0x8C34, symBinAddr: 0xCC74, symSize: 0x34 }
  - { offset: 0x25E12, size: 0x8, addend: 0x0, symName: __ZN4pyo311type_object10PyTypeInfo11type_object17h032a70a0c1f319f6E, symObjAddr: 0x2164, symBinAddr: 0xB164, symSize: 0x30 }
  - { offset: 0x25E52, size: 0x8, addend: 0x0, symName: __ZN4pyo311type_object10PyTypeInfo11type_object17h82d74649689ce9d6E, symObjAddr: 0x21F4, symBinAddr: 0xB194, symSize: 0x30 }
  - { offset: 0x25E92, size: 0x8, addend: 0x0, symName: __ZN4pyo311type_object10PyTypeInfo11type_object17h876f18190e028625E, symObjAddr: 0x2224, symBinAddr: 0xB1C4, symSize: 0x30 }
  - { offset: 0x25ED2, size: 0x8, addend: 0x0, symName: __ZN4pyo311type_object10PyTypeInfo11type_object17h9071b9b1e8b5d99dE, symObjAddr: 0x2284, symBinAddr: 0xB1F4, symSize: 0x30 }
  - { offset: 0x25F12, size: 0x8, addend: 0x0, symName: __ZN4pyo311type_object10PyTypeInfo11type_object17ha1ac6c5246bc02beE, symObjAddr: 0x22B4, symBinAddr: 0xB224, symSize: 0x30 }
  - { offset: 0x25F52, size: 0x8, addend: 0x0, symName: __ZN4pyo311type_object10PyTypeInfo16is_exact_type_of17hf48739b235ba3108E, symObjAddr: 0x22E4, symBinAddr: 0xB254, symSize: 0x58 }
  - { offset: 0x25FB2, size: 0x8, addend: 0x0, symName: '__ZN52_$LT$T$u20$as$u20$pyo3..type_object..PyTypeCheck$GT$10type_check17h36a5a39b14ec78e8E', symObjAddr: 0x86A0, symBinAddr: 0xCAC0, symSize: 0x24 }
  - { offset: 0x25FE7, size: 0x8, addend: 0x0, symName: '__ZN52_$LT$T$u20$as$u20$pyo3..type_object..PyTypeCheck$GT$10type_check17hc9b6bafd876cd995E', symObjAddr: 0x8730, symBinAddr: 0xCAE4, symSize: 0x24 }
  - { offset: 0x2601C, size: 0x8, addend: 0x0, symName: '__ZN52_$LT$T$u20$as$u20$pyo3..type_object..PyTypeCheck$GT$10type_check17hd7119d437a42c462E', symObjAddr: 0x8754, symBinAddr: 0xCB08, symSize: 0x24 }
  - { offset: 0x26051, size: 0x8, addend: 0x0, symName: '__ZN52_$LT$T$u20$as$u20$pyo3..type_object..PyTypeCheck$GT$16classinfo_object17h68accd79646ddd1dE', symObjAddr: 0x8798, symBinAddr: 0xCB2C, symSize: 0x20 }
  - { offset: 0x26091, size: 0x8, addend: 0x0, symName: '__ZN52_$LT$T$u20$as$u20$pyo3..type_object..PyTypeCheck$GT$16classinfo_object17hd68ca83a162464c4E', symObjAddr: 0x87D8, symBinAddr: 0xCB4C, symSize: 0x20 }
  - { offset: 0x260D1, size: 0x8, addend: 0x0, symName: '__ZN52_$LT$T$u20$as$u20$pyo3..type_object..PyTypeCheck$GT$16classinfo_object17hf22d420c9cca1f05E', symObjAddr: 0x8818, symBinAddr: 0xCB6C, symSize: 0x20 }
  - { offset: 0x2611D, size: 0x8, addend: 0x0, symName: '__ZN87_$LT$$BP$mut$u20$pyo3_ffi..object..PyObject$u20$as$u20$pyo3..ffi_ptr_ext..FfiPtrExt$GT$12assume_owned17h61a8752586637e7bE', symObjAddr: 0x9008, symBinAddr: 0xCF18, symSize: 0x24 }
  - { offset: 0x26162, size: 0x8, addend: 0x0, symName: '__ZN87_$LT$$BP$mut$u20$pyo3_ffi..object..PyObject$u20$as$u20$pyo3..ffi_ptr_ext..FfiPtrExt$GT$19assume_owned_or_err17hb439063a62623b73E', symObjAddr: 0x9050, symBinAddr: 0xCF3C, symSize: 0x24 }
  - { offset: 0x261A7, size: 0x8, addend: 0x0, symName: '__ZN87_$LT$$BP$mut$u20$pyo3_ffi..object..PyObject$u20$as$u20$pyo3..ffi_ptr_ext..FfiPtrExt$GT$19assume_owned_or_opt17hb341c8b0225c5ed2E', symObjAddr: 0x9074, symBinAddr: 0xCF60, symSize: 0x24 }
  - { offset: 0x261EC, size: 0x8, addend: 0x0, symName: '__ZN87_$LT$$BP$mut$u20$pyo3_ffi..object..PyObject$u20$as$u20$pyo3..ffi_ptr_ext..FfiPtrExt$GT$22assume_borrowed_or_err17hd4a4c5e80a5fe4b9E', symObjAddr: 0x9098, symBinAddr: 0xCF84, symSize: 0x24 }
  - { offset: 0x26231, size: 0x8, addend: 0x0, symName: '__ZN87_$LT$$BP$mut$u20$pyo3_ffi..object..PyObject$u20$as$u20$pyo3..ffi_ptr_ext..FfiPtrExt$GT$25assume_borrowed_unchecked17h5ba071dfca9a0101E', symObjAddr: 0x90E0, symBinAddr: 0xCFA8, symSize: 0x24 }
  - { offset: 0x26688, size: 0x8, addend: 0x0, symName: '__ZN4core3ptr7mut_ptr31_$LT$impl$u20$$BP$mut$u20$T$GT$7is_null17hcb281fb499f643c0E', symObjAddr: 0x1BB8, symBinAddr: 0xB134, symSize: 0x18 }
  - { offset: 0x27A5A, size: 0x8, addend: 0x0, symName: __ZN4core4iter6traits8iterator8Iterator9enumerate17h952e7ed7e55e65d9E, symObjAddr: 0x1CB8, symBinAddr: 0xB14C, symSize: 0x18 }
  - { offset: 0x27A8B, size: 0x8, addend: 0x0, symName: __ZN4core4iter6traits8iterator8Iterator9enumerate17h952e7ed7e55e65d9E, symObjAddr: 0x1CB8, symBinAddr: 0xB14C, symSize: 0x18 }
  - { offset: 0x27CAD, size: 0x8, addend: 0x0, symName: __ZN8pyo3_ffi6object10Py_IS_TYPE17h0650346cff9fd9b0E, symObjAddr: 0x9104, symBinAddr: 0xCFCC, symSize: 0x38 }
  - { offset: 0x27CE7, size: 0x8, addend: 0x0, symName: __ZN8pyo3_ffi6object12PyType_Check17h38eb58bf11d37f07E, symObjAddr: 0x913C, symBinAddr: 0xD004, symSize: 0x30 }
  - { offset: 0x27D15, size: 0x8, addend: 0x0, symName: __ZN8pyo3_ffi6object17PyType_HasFeature17h1bb542601b995ce4E, symObjAddr: 0x916C, symBinAddr: 0xD034, symSize: 0x3C }
  - { offset: 0x27D70, size: 0x8, addend: 0x0, symName: __ZN8pyo3_ffi6object18PyObject_TypeCheck17h6855ae3b5c706ffcE, symObjAddr: 0x91C0, symBinAddr: 0xD070, symSize: 0x70 }
  - { offset: 0x27DAD, size: 0x8, addend: 0x0, symName: __ZN8pyo3_ffi6object19PyType_FastSubclass17h7e25b12387105f31E, symObjAddr: 0x9230, symBinAddr: 0xD0E0, symSize: 0x28 }
  - { offset: 0x27DEA, size: 0x8, addend: 0x0, symName: __ZN8pyo3_ffi6object7Py_None17h8adeb086d617de06E, symObjAddr: 0x9258, symBinAddr: 0xD108, symSize: 0x18 }
  - { offset: 0x28386, size: 0x8, addend: 0x0, symName: '__ZN3std4sync9once_lock17OnceLock$LT$T$GT$11get_or_init28_$u7b$$u7b$closure$u7d$$u7d$17h9555aa471e8f4cbaE', symObjAddr: 0x1980, symBinAddr: 0xAFC0, symSize: 0x3C }
  - { offset: 0x283CD, size: 0x8, addend: 0x0, symName: '__ZN3std4sync9once_lock17OnceLock$LT$T$GT$10initialize28_$u7b$$u7b$closure$u7d$$u7d$17h8f92040dcfdb621dE', symObjAddr: 0x189C, symBinAddr: 0xAEDC, symSize: 0xB8 }
  - { offset: 0x288DF, size: 0x8, addend: 0x0, symName: '__ZN3std4sync9once_lock17OnceLock$LT$T$GT$10initialize17h515d35dc4553861aE', symObjAddr: 0x184C, symBinAddr: 0x4471C, symSize: 0x50 }
  - { offset: 0x28A29, size: 0x8, addend: 0x0, symName: '__ZN3std4sync9once_lock17OnceLock$LT$T$GT$11get_or_init17ha68be32382574c99E', symObjAddr: 0x1954, symBinAddr: 0xAF94, symSize: 0x2C }
  - { offset: 0x28B51, size: 0x8, addend: 0x0, symName: '__ZN3std4sync9once_lock17OnceLock$LT$T$GT$15get_or_try_init17he034761fe7276f22E', symObjAddr: 0x19BC, symBinAddr: 0xAFFC, symSize: 0xD4 }
  - { offset: 0x28E49, size: 0x8, addend: 0x0, symName: '__ZN3std4sync9once_lock17OnceLock$LT$T$GT$3get17h4557e423ad65a4f1E', symObjAddr: 0x1B3C, symBinAddr: 0xB0D0, symSize: 0x64 }
  - { offset: 0x29011, size: 0x8, addend: 0x0, symName: __ZN4pyo33err9err_state10PyErrState10from_inner17hd47886363e2e05c1E, symObjAddr: 0x233C, symBinAddr: 0xB2AC, symSize: 0xF0 }
  - { offset: 0x29052, size: 0x8, addend: 0x0, symName: __ZN4pyo33err9err_state10PyErrState10normalized17h5ccad4de8a060689E, symObjAddr: 0x242C, symBinAddr: 0xB39C, symSize: 0x90 }
  - { offset: 0x290A3, size: 0x8, addend: 0x0, symName: __ZN4pyo33err9err_state10PyErrState13as_normalized17ha2a07c8bdc96dd95E, symObjAddr: 0x24C8, symBinAddr: 0xB438, symSize: 0x100 }
  - { offset: 0x29169, size: 0x8, addend: 0x0, symName: __ZN4pyo33err9err_state10PyErrState15make_normalized17h7b744e4776079f5dE, symObjAddr: 0x26DC, symBinAddr: 0x4476C, symSize: 0x2D0 }
  - { offset: 0x2922B, size: 0x8, addend: 0x0, symName: __ZN4pyo33err9err_state10PyErrState4lazy17h38f002f227806f04E, symObjAddr: 0x2D78, symBinAddr: 0xB904, symSize: 0x3C }
  - { offset: 0x29269, size: 0x8, addend: 0x0, symName: __ZN4pyo33err9err_state10PyErrState7restore17hcb96c53145082907E, symObjAddr: 0x2DB4, symBinAddr: 0xB940, symSize: 0xAC }
  - { offset: 0x292C2, size: 0x8, addend: 0x0, symName: __ZN4pyo33err9err_state15PyErrStateInner7restore17hb3a6ace2c7d25e3eE, symObjAddr: 0x2F90, symBinAddr: 0xBB1C, symSize: 0x84 }
  - { offset: 0x2933D, size: 0x8, addend: 0x0, symName: __ZN4pyo33err9err_state15PyErrStateInner9normalize17he534c6d46392c4dbE, symObjAddr: 0x3014, symBinAddr: 0xBBA0, symSize: 0x8C }
  - { offset: 0x293B8, size: 0x8, addend: 0x0, symName: __ZN4pyo33err9err_state20PyErrStateNormalized10ptraceback17h45fa1602dd96e24aE, symObjAddr: 0x30A0, symBinAddr: 0xBC2C, symSize: 0x30 }
  - { offset: 0x293F3, size: 0x8, addend: 0x0, symName: __ZN4pyo33err9err_state20PyErrStateNormalized4take17heb9343dc8f3bc5afE, symObjAddr: 0x3120, symBinAddr: 0xBC80, symSize: 0x24 }
  - { offset: 0x29420, size: 0x8, addend: 0x0, symName: __ZN4pyo33err9err_state20PyErrStateNormalized5ptype17h34fe5837991002dcE, symObjAddr: 0x316C, symBinAddr: 0xBCCC, symSize: 0x2C }
  - { offset: 0x29489, size: 0x8, addend: 0x0, symName: __ZN4pyo35panic14PanicException18from_panic_payload17h7f881a5e0192e14cE, symObjAddr: 0x4028, symBinAddr: 0x44A3C, symSize: 0x144 }
  - { offset: 0x294E8, size: 0x8, addend: 0x0, symName: __ZN4pyo35panic14PanicException7new_err17h21970cb212413c39E, symObjAddr: 0x416C, symBinAddr: 0xBE24, symSize: 0x28 }
  - { offset: 0x29526, size: 0x8, addend: 0x0, symName: __ZN4pyo35panic14PanicException7new_err17h8f0fcee9aab25fd7E, symObjAddr: 0x4194, symBinAddr: 0xBE4C, symSize: 0x34 }
  - { offset: 0x29552, size: 0x8, addend: 0x0, symName: __ZN4pyo35types10typeobject6PyType22from_borrowed_type_ptr17hc3f0c2e55a62d703E, symObjAddr: 0x493C, symBinAddr: 0xBE80, symSize: 0x34 }
  - { offset: 0x295A7, size: 0x8, addend: 0x0, symName: __ZN4pyo35types4list6PyList5empty17h453a25963de8bcdeE, symObjAddr: 0x4D30, symBinAddr: 0xBEB4, symSize: 0x30 }
  - { offset: 0x295E1, size: 0x8, addend: 0x0, symName: __ZN4pyo35types5tuple18BoundTupleIterator3new17hfc25ec945810ccbfE, symObjAddr: 0x5CDC, symBinAddr: 0xC0E0, symSize: 0x78 }
  - { offset: 0x2963C, size: 0x8, addend: 0x0, symName: __ZN4pyo35types5tuple21BorrowedTupleIterator8get_item17hc20848bab0c20573E, symObjAddr: 0x5E60, symBinAddr: 0xC158, symSize: 0x58 }
  - { offset: 0x296A2, size: 0x8, addend: 0x0, symName: __ZN4pyo38internal5state11AttachGuard10try_attach17h39a76c44b37fac6cE, symObjAddr: 0x7A14, symBinAddr: 0xC27C, symSize: 0xDC }
  - { offset: 0x296E2, size: 0x8, addend: 0x0, symName: __ZN4pyo38internal5state11AttachGuard19do_attach_unchecked17he1381a39d9a39b11E, symObjAddr: 0x7B68, symBinAddr: 0x44B80, symSize: 0x3C }
  - { offset: 0x29727, size: 0x8, addend: 0x0, symName: __ZN4pyo38internal5state11AttachGuard6assume17h926ded49bd144c8fE, symObjAddr: 0x7BA4, symBinAddr: 0xC37C, symSize: 0x28 }
  - { offset: 0x2974F, size: 0x8, addend: 0x0, symName: __ZN4pyo38internal5state11AttachGuard6attach17hb2cfb00d23b43aa3E, symObjAddr: 0x7BCC, symBinAddr: 0xC3A4, symSize: 0xB0 }
  - { offset: 0x29780, size: 0x8, addend: 0x0, symName: __ZN4pyo38internal5state11AttachGuard6python17h484926e577af49adE, symObjAddr: 0x7C7C, symBinAddr: 0xC454, symSize: 0x20 }
  - { offset: 0x297E5, size: 0x8, addend: 0x0, symName: __ZN4pyo38internal5state13ReferencePool15register_decref17h66e544915815472bE, symObjAddr: 0x7CCC, symBinAddr: 0xC4A4, symSize: 0x128 }
  - { offset: 0x2986A, size: 0x8, addend: 0x0, symName: __ZN4pyo38internal5state13ReferencePool24drop_deferred_references17h9931e0364f3b6dc7E, symObjAddr: 0x7DF4, symBinAddr: 0xC5CC, symSize: 0x280 }
  - { offset: 0x2996B, size: 0x8, addend: 0x0, symName: __ZN4pyo38internal5state13ReferencePool3new17h7ca2e292e3ac1fecE, symObjAddr: 0x8074, symBinAddr: 0xC84C, symSize: 0x4C }
  - { offset: 0x2998B, size: 0x8, addend: 0x0, symName: __ZN4pyo38internal5state13SuspendAttach3new17ha02593b479ce0e0fE, symObjAddr: 0x80C0, symBinAddr: 0xC898, symSize: 0x40 }
  - { offset: 0x299BC, size: 0x8, addend: 0x0, symName: __ZN4pyo38internal5state15ForbidAttaching4bail17h0ca0236f3b39c77dE, symObjAddr: 0x81A8, symBinAddr: 0x44BBC, symSize: 0x50 }
  - { offset: 0x29C39, size: 0x8, addend: 0x0, symName: '__ZN71_$LT$pyo3..impl_..panic..PanicTrap$u20$as$u20$core..ops..drop..Drop$GT$4drop17h85f6e988f74fd7bdE', symObjAddr: 0x77C0, symBinAddr: 0xDD70, symSize: 0x20 }
  - { offset: 0x2ADA2, size: 0x8, addend: 0x0, symName: '__ZN145_$LT$core..option..Option$LT$T$GT$$u20$as$u20$core..ops..try_trait..FromResidual$LT$core..option..Option$LT$core..convert..Infallible$GT$$GT$$GT$13from_residual17h2b35b0dfac30a28dE', symObjAddr: 0x448, symBinAddr: 0xD1F0, symSize: 0x10 }
  - { offset: 0x2BED7, size: 0x8, addend: 0x0, symName: '__ZN66_$LT$core..option..Option$LT$T$GT$$u20$as$u20$core..fmt..Debug$GT$3fmt17h44167fb35470b35cE', symObjAddr: 0x7570, symBinAddr: 0xDCD0, symSize: 0xA0 }
  - { offset: 0x2BF41, size: 0x8, addend: 0x0, symName: '__ZN75_$LT$core..option..Option$LT$T$GT$$u20$as$u20$core..ops..try_trait..Try$GT$6branch17h213076d0accb2f43E', symObjAddr: 0x7864, symBinAddr: 0xDD90, symSize: 0x40 }
  - { offset: 0x2CD16, size: 0x8, addend: 0x0, symName: __ZN8pyo3_ffi8pyerrors22PyExceptionClass_Check17h8f511a7f8633e16eE, symObjAddr: 0x7C2C, symBinAddr: 0xDDD0, symSize: 0x60 }
  - { offset: 0x2D583, size: 0x8, addend: 0x0, symName: __ZN4core3fmt2rt8Argument11new_display17h06244ec79d87d1efE, symObjAddr: 0x7F4, symBinAddr: 0xD200, symSize: 0x2C }
  - { offset: 0x2D5C8, size: 0x8, addend: 0x0, symName: __ZN4core3fmt2rt8Argument11new_display17h0fe27c83c5a0e50cE, symObjAddr: 0x820, symBinAddr: 0xD22C, symSize: 0x2C }
  - { offset: 0x2D600, size: 0x8, addend: 0x0, symName: __ZN4core3fmt2rt8Argument11new_display17h1dcdceb029d0cab8E, symObjAddr: 0x84C, symBinAddr: 0xD258, symSize: 0x2C }
  - { offset: 0x2D645, size: 0x8, addend: 0x0, symName: __ZN4core3fmt2rt8Argument11new_display17h2ed95d98f4d53614E, symObjAddr: 0x8A4, symBinAddr: 0xD284, symSize: 0x2C }
  - { offset: 0x2D67D, size: 0x8, addend: 0x0, symName: __ZN4core3fmt2rt8Argument11new_display17h300b404504e92af8E, symObjAddr: 0x8D0, symBinAddr: 0xD2B0, symSize: 0x2C }
  - { offset: 0x2D6B5, size: 0x8, addend: 0x0, symName: __ZN4core3fmt2rt8Argument11new_display17h3934f2e058b103bfE, symObjAddr: 0x8FC, symBinAddr: 0xD2DC, symSize: 0x2C }
  - { offset: 0x2D7BD, size: 0x8, addend: 0x0, symName: __ZN4core3fmt2rt8Argument9new_debug17hfeaa5d17a244fa30E, symObjAddr: 0xBBC, symBinAddr: 0xD308, symSize: 0x2C }
  - { offset: 0x2D81D, size: 0x8, addend: 0x0, symName: '__ZN4core6option15Option$LT$T$GT$11map_or_else17h107ea90f0b34d2c1E', symObjAddr: 0x11D0, symBinAddr: 0xD334, symSize: 0xC0 }
  - { offset: 0x2DA89, size: 0x8, addend: 0x0, symName: '__ZN4core6option15Option$LT$T$GT$11map_or_else17hefdfbfe04b3762e1E', symObjAddr: 0x1740, symBinAddr: 0xD3F4, symSize: 0xC0 }
  - { offset: 0x2DB51, size: 0x8, addend: 0x0, symName: '__ZN4core6option15Option$LT$T$GT$14unwrap_or_else17h1d0c810b229ebf02E', symObjAddr: 0x1800, symBinAddr: 0xD4B4, symSize: 0x6C }
  - { offset: 0x2DBA8, size: 0x8, addend: 0x0, symName: '__ZN4core6option15Option$LT$T$GT$14unwrap_or_else17h41ea4b3bb509108aE', symObjAddr: 0x186C, symBinAddr: 0xD520, symSize: 0x54 }
  - { offset: 0x2DBED, size: 0x8, addend: 0x0, symName: '__ZN4core6option15Option$LT$T$GT$14unwrap_or_else17h6addfcdc9ca7d5aeE', symObjAddr: 0x18C0, symBinAddr: 0xD574, symSize: 0x58 }
  - { offset: 0x2DC31, size: 0x8, addend: 0x0, symName: '__ZN4core6option15Option$LT$T$GT$14unwrap_or_else17hb2f8938609ebd739E', symObjAddr: 0x1918, symBinAddr: 0xD5CC, symSize: 0x68 }
  - { offset: 0x2DC76, size: 0x8, addend: 0x0, symName: '__ZN4core6option15Option$LT$T$GT$16unwrap_unchecked17h0f10e27e13e6ac44E', symObjAddr: 0x1A24, symBinAddr: 0xD634, symSize: 0x4C }
  - { offset: 0x2DCC4, size: 0x8, addend: 0x0, symName: '__ZN4core6option15Option$LT$T$GT$16unwrap_unchecked17h492f9487666d4d48E', symObjAddr: 0x1ACC, symBinAddr: 0xD680, symSize: 0x60 }
  - { offset: 0x2DD06, size: 0x8, addend: 0x0, symName: '__ZN4core6option15Option$LT$T$GT$16unwrap_unchecked17h617dc43f4220ffbfE', symObjAddr: 0x1B78, symBinAddr: 0xD6E0, symSize: 0x5C }
  - { offset: 0x2DD48, size: 0x8, addend: 0x0, symName: '__ZN4core6option15Option$LT$T$GT$16unwrap_unchecked17h8212fa54acd1c282E', symObjAddr: 0x1C30, symBinAddr: 0xD73C, symSize: 0x4C }
  - { offset: 0x2DDBF, size: 0x8, addend: 0x0, symName: '__ZN4core6option15Option$LT$T$GT$3map17h6c65f268ee4ba5f7E', symObjAddr: 0x1FAC, symBinAddr: 0xD788, symSize: 0x5C }
  - { offset: 0x2DE2A, size: 0x8, addend: 0x0, symName: '__ZN4core6option15Option$LT$T$GT$3map17h8ac75a58a965e278E', symObjAddr: 0x2084, symBinAddr: 0xD7E4, symSize: 0x78 }
  - { offset: 0x2DEAD, size: 0x8, addend: 0x0, symName: '__ZN4core6option15Option$LT$T$GT$3map17h9446f9349217b0c8E', symObjAddr: 0x2178, symBinAddr: 0xD85C, symSize: 0x50 }
  - { offset: 0x2DF18, size: 0x8, addend: 0x0, symName: '__ZN4core6option15Option$LT$T$GT$3map17ha6fff48687f85e60E', symObjAddr: 0x2244, symBinAddr: 0xD8AC, symSize: 0x50 }
  - { offset: 0x2DFA8, size: 0x8, addend: 0x0, symName: '__ZN4core6option15Option$LT$T$GT$4take17h14cc24b44cd3bb3cE', symObjAddr: 0x2368, symBinAddr: 0xD8FC, symSize: 0x3C }
  - { offset: 0x2E00C, size: 0x8, addend: 0x0, symName: '__ZN4core6option15Option$LT$T$GT$4take17h4d991fc7454d21eaE', symObjAddr: 0x245C, symBinAddr: 0xD938, symSize: 0x5C }
  - { offset: 0x2E063, size: 0x8, addend: 0x0, symName: '__ZN4core6option15Option$LT$T$GT$4take17hdc2a97ca0b03f000E', symObjAddr: 0x2648, symBinAddr: 0xD994, symSize: 0x3C }
  - { offset: 0x2E0D4, size: 0x8, addend: 0x0, symName: '__ZN4core6option15Option$LT$T$GT$6as_ref17h6ae1b2a963b97221E', symObjAddr: 0x27E8, symBinAddr: 0xD9D0, symSize: 0x4C }
  - { offset: 0x2E12B, size: 0x8, addend: 0x0, symName: '__ZN4core6option15Option$LT$T$GT$6as_ref17h7dc14ffd86bfbc56E', symObjAddr: 0x2834, symBinAddr: 0xDA1C, symSize: 0x4C }
  - { offset: 0x2E182, size: 0x8, addend: 0x0, symName: '__ZN4core6option15Option$LT$T$GT$6as_ref17h8a21828d9406f6beE', symObjAddr: 0x2880, symBinAddr: 0xDA68, symSize: 0x4C }
  - { offset: 0x2E1D9, size: 0x8, addend: 0x0, symName: '__ZN4core6option15Option$LT$T$GT$6as_ref17hd0d76f562dfc6e1eE', symObjAddr: 0x2964, symBinAddr: 0xDAB4, symSize: 0x4C }
  - { offset: 0x2E230, size: 0x8, addend: 0x0, symName: '__ZN4core6option15Option$LT$T$GT$6expect17h716f406a191dfca6E', symObjAddr: 0x2A58, symBinAddr: 0xDB00, symSize: 0x5C }
  - { offset: 0x2E26B, size: 0x8, addend: 0x0, symName: '__ZN4core6option15Option$LT$T$GT$6expect17h7b046ad15f1ce431E', symObjAddr: 0x2AB4, symBinAddr: 0xDB5C, symSize: 0x60 }
  - { offset: 0x2E2D7, size: 0x8, addend: 0x0, symName: '__ZN4core6option15Option$LT$T$GT$6map_or17h984af3730e463334E', symObjAddr: 0x2BB0, symBinAddr: 0xDBBC, symSize: 0x9C }
  - { offset: 0x2E36E, size: 0x8, addend: 0x0, symName: '__ZN4core6option15Option$LT$T$GT$7is_some17h2894d0ee73d34f0cE', symObjAddr: 0x2E7C, symBinAddr: 0xDC58, symSize: 0x28 }
  - { offset: 0x2E3B4, size: 0x8, addend: 0x0, symName: '__ZN4core6option15Option$LT$T$GT$7replace17hbb83ec63037f7656E', symObjAddr: 0x2EEC, symBinAddr: 0xDC80, symSize: 0x24 }
  - { offset: 0x2E41B, size: 0x8, addend: 0x0, symName: __ZN4pyo35impl_8pymodule9ModuleDef16init_multi_phase17h0afc72efc837db21E, symObjAddr: 0x47E0, symBinAddr: 0xDCA4, symSize: 0x2C }
  - { offset: 0x2E978, size: 0x8, addend: 0x0, symName: '__ZN77_$LT$alloc..raw_vec..RawVec$LT$T$C$A$GT$$u20$as$u20$core..ops..drop..Drop$GT$4drop17h728bb5118a642370E', symObjAddr: 0x6BB4, symBinAddr: 0xE574, symSize: 0x30 }
  - { offset: 0x2EA44, size: 0x8, addend: 0x0, symName: '__ZN87_$LT$T$u20$as$u20$alloc..slice..$LT$impl$u20$$u5b$T$u5d$$GT$..to_vec_in..ConvertVec$GT$6to_vec17h5348fed64f9b727cE', symObjAddr: 0x6D84, symBinAddr: 0xE5A4, symSize: 0xF4 }
  - { offset: 0x2ED59, size: 0x8, addend: 0x0, symName: '__ZN72_$LT$alloc..boxed..Box$LT$T$C$A$GT$$u20$as$u20$core..ops..drop..Drop$GT$4drop17ha1aa6e2768f62100E', symObjAddr: 0x6520, symBinAddr: 0xE33C, symSize: 0xC4 }
  - { offset: 0x2EE92, size: 0x8, addend: 0x0, symName: '__ZN72_$LT$alloc..boxed..Box$LT$T$C$A$GT$$u20$as$u20$core..ops..drop..Drop$GT$4drop17hd2be45cee617d02fE', symObjAddr: 0x6694, symBinAddr: 0xE400, symSize: 0xC4 }
  - { offset: 0x2EFCB, size: 0x8, addend: 0x0, symName: '__ZN72_$LT$alloc..boxed..Box$LT$T$C$A$GT$$u20$as$u20$core..ops..drop..Drop$GT$4drop17hfca796ce0ffe34b9E', symObjAddr: 0x6A38, symBinAddr: 0xE4C4, symSize: 0xB0 }
  - { offset: 0x2F154, size: 0x8, addend: 0x0, symName: '__ZN90_$LT$alloc..boxed..Box$LT$F$C$A$GT$$u20$as$u20$core..ops..function..FnOnce$LT$Args$GT$$GT$9call_once17ha974332699e42e3bE', symObjAddr: 0x6E78, symBinAddr: 0xE698, symSize: 0x138 }
  - { offset: 0x30A7A, size: 0x8, addend: 0x0, symName: __ZN4core3str8converts19from_utf8_unchecked17h52f9388720294555E, symObjAddr: 0x1118, symBinAddr: 0xDE4C, symSize: 0x18 }
  - { offset: 0x30B2A, size: 0x8, addend: 0x0, symName: '__ZN53_$LT$T$u20$as$u20$core..convert..TryInto$LT$U$GT$$GT$8try_into17hd052744a96f7c92dE', symObjAddr: 0x4CA8, symBinAddr: 0xE1A8, symSize: 0x20 }
  - { offset: 0x3147D, size: 0x8, addend: 0x0, symName: '__ZN4pyo34sync9once_lock19PyOnceLock$LT$T$GT$11get_or_init28_$u7b$$u7b$closure$u7d$$u7d$17h49c2aab8bc1403c2E', symObjAddr: 0x219C, symBinAddr: 0xE038, symSize: 0x38 }
  - { offset: 0x314DC, size: 0x8, addend: 0x0, symName: '__ZN4pyo34sync9once_lock19PyOnceLock$LT$T$GT$11get_or_init28_$u7b$$u7b$closure$u7d$$u7d$17hae33c0524a42d99cE', symObjAddr: 0x21D4, symBinAddr: 0xE070, symSize: 0x28 }
  - { offset: 0x31572, size: 0x8, addend: 0x0, symName: __ZN4pyo34sync9once_lock26init_once_cell_py_attached17hd17a038941906d9dE, symObjAddr: 0x2754, symBinAddr: 0x44C0C, symSize: 0xB4 }
  - { offset: 0x315F5, size: 0x8, addend: 0x0, symName: __ZN4pyo34sync9once_lock26init_once_cell_py_attached17hfa49349de8825ba5E, symObjAddr: 0x2808, symBinAddr: 0x44CC0, symSize: 0xAC }
  - { offset: 0x3167C, size: 0x8, addend: 0x0, symName: '__ZN4pyo34sync9once_lock26init_once_cell_py_attached28_$u7b$$u7b$closure$u7d$$u7d$17h59bb5fd1ee85f2eaE', symObjAddr: 0x28B4, symBinAddr: 0xE098, symSize: 0x80 }
  - { offset: 0x316CC, size: 0x8, addend: 0x0, symName: '__ZN4pyo34sync9once_lock26init_once_cell_py_attached28_$u7b$$u7b$closure$u7d$$u7d$17ha8ac3f4ffc620042E', symObjAddr: 0x2934, symBinAddr: 0xE118, symSize: 0x90 }
  - { offset: 0x31728, size: 0x8, addend: 0x0, symName: '__ZN4pyo34sync8Interned3get28_$u7b$$u7b$closure$u7d$$u7d$17h212ebc4cb6b611c2E', symObjAddr: 0x1FC0, symBinAddr: 0xDEAC, symSize: 0x34 }
  - { offset: 0x31F06, size: 0x8, addend: 0x0, symName: __ZN3std6thread6thread6Thread2id17h3a2275663ef5be1aE, symObjAddr: 0x60C, symBinAddr: 0xDE30, symSize: 0x1C }
  - { offset: 0x320E3, size: 0x8, addend: 0x0, symName: __ZN4pyo34sync8Interned3get17hc03821b163add7c0E, symObjAddr: 0x1F78, symBinAddr: 0xDE64, symSize: 0x48 }
  - { offset: 0x32138, size: 0x8, addend: 0x0, symName: '__ZN4pyo34sync9once_lock19PyOnceLock$LT$T$GT$11get_or_init17h8f6ddd0c9e113570E', symObjAddr: 0x2044, symBinAddr: 0xDEE0, symSize: 0xB0 }
  - { offset: 0x321A1, size: 0x8, addend: 0x0, symName: '__ZN4pyo34sync9once_lock19PyOnceLock$LT$T$GT$11get_or_init17hc83c45e2b68dfcb6E', symObjAddr: 0x20F4, symBinAddr: 0xDF90, symSize: 0xA8 }
  - { offset: 0x32326, size: 0x8, addend: 0x0, symName: '__ZN5alloc7raw_vec19RawVec$LT$T$C$A$GT$8grow_one17h5f1f0eecd26d138fE', symObjAddr: 0x52C4, symBinAddr: 0xE1C8, symSize: 0x84 }
  - { offset: 0x32456, size: 0x8, addend: 0x0, symName: '__ZN5alloc7raw_vec20RawVecInner$LT$A$GT$16with_capacity_in17ha186881552139dfaE', symObjAddr: 0x5B00, symBinAddr: 0xE24C, symSize: 0xF0 }
  - { offset: 0x32C00, size: 0x8, addend: 0x0, symName: '__ZN3std4sync4once4Once15call_once_force28_$u7b$$u7b$closure$u7d$$u7d$17h32b18dfa5177844cE', symObjAddr: 0x13CC, symBinAddr: 0xEC3C, symSize: 0x84 }
  - { offset: 0x32C92, size: 0x8, addend: 0x0, symName: '__ZN3std4sync4once4Once15call_once_force28_$u7b$$u7b$closure$u7d$$u7d$17h521a89db47c27f9fE', symObjAddr: 0x1450, symBinAddr: 0xECC0, symSize: 0x68 }
  - { offset: 0x32D24, size: 0x8, addend: 0x0, symName: '__ZN3std4sync4once4Once15call_once_force28_$u7b$$u7b$closure$u7d$$u7d$17hea4e7605dee71dd2E', symObjAddr: 0x15C0, symBinAddr: 0xED28, symSize: 0x68 }
  - { offset: 0x32DBC, size: 0x8, addend: 0x0, symName: '__ZN3std4sync4once4Once9call_once28_$u7b$$u7b$closure$u7d$$u7d$17h770e6b1fc6455c1cE', symObjAddr: 0x1800, symBinAddr: 0xEF68, symSize: 0x60 }
  - { offset: 0x32E4A, size: 0x8, addend: 0x0, symName: '__ZN3std4sync4once4Once9call_once28_$u7b$$u7b$closure$u7d$$u7d$17hb246fb227653858bE', symObjAddr: 0x1860, symBinAddr: 0xEFC8, symSize: 0x68 }
  - { offset: 0x331EF, size: 0x8, addend: 0x0, symName: '__ZN3std4sync6poison5mutex19MutexGuard$LT$T$GT$3new28_$u7b$$u7b$closure$u7d$$u7d$17h40c1274d9f2f7e09E', symObjAddr: 0x1A44, symBinAddr: 0xF164, symSize: 0x18 }
  - { offset: 0x33237, size: 0x8, addend: 0x0, symName: '__ZN3std4sync6poison5mutex19MutexGuard$LT$T$GT$3new28_$u7b$$u7b$closure$u7d$$u7d$17ha0e63c5a079f416dE', symObjAddr: 0x1A74, symBinAddr: 0xF17C, symSize: 0x18 }
  - { offset: 0x33286, size: 0x8, addend: 0x0, symName: '__ZN87_$LT$std..sync..poison..mutex..MutexGuard$LT$T$GT$$u20$as$u20$core..ops..drop..Drop$GT$4drop17h7a0a76f4e8e69deeE', symObjAddr: 0x4224, symBinAddr: 0xF588, symSize: 0x58 }
  - { offset: 0x33304, size: 0x8, addend: 0x0, symName: '__ZN87_$LT$std..sync..poison..mutex..MutexGuard$LT$T$GT$$u20$as$u20$core..ops..drop..Drop$GT$4drop17h9193996f05103555E', symObjAddr: 0x427C, symBinAddr: 0xF5E0, symSize: 0x58 }
  - { offset: 0x33388, size: 0x8, addend: 0x0, symName: '__ZN89_$LT$std..sync..poison..mutex..MutexGuard$LT$T$GT$$u20$as$u20$core..ops..deref..Deref$GT$5deref17h16afb8a654973010E', symObjAddr: 0x432C, symBinAddr: 0xF638, symSize: 0x1C }
  - { offset: 0x333D4, size: 0x8, addend: 0x0, symName: '__ZN89_$LT$std..sync..poison..mutex..MutexGuard$LT$T$GT$$u20$as$u20$core..ops..deref..Deref$GT$5deref17h87e3bf2613955244E', symObjAddr: 0x4364, symBinAddr: 0xF654, symSize: 0x1C }
  - { offset: 0x33426, size: 0x8, addend: 0x0, symName: '__ZN92_$LT$std..sync..poison..mutex..MutexGuard$LT$T$GT$$u20$as$u20$core..ops..deref..DerefMut$GT$9deref_mut17h6b89dcab92ee27f2E', symObjAddr: 0x43DC, symBinAddr: 0xF670, symSize: 0x1C }
  - { offset: 0x33472, size: 0x8, addend: 0x0, symName: '__ZN92_$LT$std..sync..poison..mutex..MutexGuard$LT$T$GT$$u20$as$u20$core..ops..deref..DerefMut$GT$9deref_mut17hd9e75eff76f8cf74E', symObjAddr: 0x4414, symBinAddr: 0xF68C, symSize: 0x1C }
  - { offset: 0x336F6, size: 0x8, addend: 0x0, symName: '__ZN84_$LT$std..sys..sync..once_box..OnceBox$LT$T$GT$$u20$as$u20$core..ops..drop..Drop$GT$4drop17hc67ff8968da764daE', symObjAddr: 0x41B0, symBinAddr: 0xF514, symSize: 0x74 }
  - { offset: 0x34443, size: 0x8, addend: 0x0, symName: __ZN4core3ptr19copy_nonoverlapping18precondition_check17h203b6be3cee4878fE, symObjAddr: 0x2150, symBinAddr: 0xF254, symSize: 0x168 }
  - { offset: 0x34C09, size: 0x8, addend: 0x0, symName: __ZN4core3mem4drop17h2fe5566f5630e7d4E, symObjAddr: 0x1CBC, symBinAddr: 0xF194, symSize: 0x2C }
  - { offset: 0x34C3C, size: 0x8, addend: 0x0, symName: __ZN4core3mem4drop17hc1c3e23d97d5d616E, symObjAddr: 0x1CE8, symBinAddr: 0xF1C0, symSize: 0x2C }
  - { offset: 0x34CA2, size: 0x8, addend: 0x0, symName: __ZN4core3mem4take17h22f4c0bac4fc70feE, symObjAddr: 0x1D40, symBinAddr: 0xF1EC, symSize: 0x54 }
  - { offset: 0x34CFF, size: 0x8, addend: 0x0, symName: __ZN4core3mem6forget17h175cf4e74f2a85c8E, symObjAddr: 0x1E50, symBinAddr: 0xF240, symSize: 0x14 }
  - { offset: 0x35330, size: 0x8, addend: 0x0, symName: '__ZN118_$LT$$u5b$core..mem..maybe_uninit..MaybeUninit$LT$T$GT$$u5d$$u20$as$u20$core..array..iter..iter_inner..PartialDrop$GT$12partial_drop17ha543ba1bbadafa1dE', symObjAddr: 0xA0, symBinAddr: 0xE7D0, symSize: 0xA0 }
  - { offset: 0x35430, size: 0x8, addend: 0x0, symName: '__ZN129_$LT$$u5b$core..mem..maybe_uninit..MaybeUninit$LT$T$GT$$u3b$$u20$N$u5d$$u20$as$u20$core..array..iter..iter_inner..PartialDrop$GT$12partial_drop17h5fe1d0b35a21766dE', symObjAddr: 0x1D8, symBinAddr: 0xE870, symSize: 0x4C }
  - { offset: 0x36245, size: 0x8, addend: 0x0, symName: __ZN5alloc3fmt6format17h738ed0c65980a881E, symObjAddr: 0x2DB4, symBinAddr: 0xF3BC, symSize: 0xD8 }
  - { offset: 0x36309, size: 0x8, addend: 0x0, symName: '__ZN5alloc3fmt6format28_$u7b$$u7b$closure$u7d$$u7d$17h11d8a448caf2a3ffE', symObjAddr: 0x2E8C, symBinAddr: 0xF494, symSize: 0x30 }
  - { offset: 0x36345, size: 0x8, addend: 0x0, symName: '__ZN5alloc3str56_$LT$impl$u20$alloc..borrow..ToOwned$u20$for$u20$str$GT$8to_owned17h461137865b1ebce4E', symObjAddr: 0x3F84, symBinAddr: 0xF4C4, symSize: 0x50 }
  - { offset: 0x368E6, size: 0x8, addend: 0x0, symName: '__ZN3std3sys4sync8once_box16OnceBox$LT$T$GT$10initialize17h235ba16fca01ba17E', symObjAddr: 0xD9C, symBinAddr: 0x44D6C, symSize: 0xD8 }
  - { offset: 0x36ABD, size: 0x8, addend: 0x0, symName: '__ZN3std3sys4sync8once_box16OnceBox$LT$T$GT$11get_or_init17h24124f7cec898371E', symObjAddr: 0xE74, symBinAddr: 0xE8BC, symSize: 0xB4 }
  - { offset: 0x36BE3, size: 0x8, addend: 0x0, symName: __ZN3std4sync4once4Once12is_completed17h36e3bbbf4ed67316E, symObjAddr: 0xF28, symBinAddr: 0xE970, symSize: 0x38 }
  - { offset: 0x36C86, size: 0x8, addend: 0x0, symName: __ZN3std4sync4once4Once15call_once_force17h42ff1e16f3cfc282E, symObjAddr: 0x104C, symBinAddr: 0xE9A8, symSize: 0xEC }
  - { offset: 0x36D4B, size: 0x8, addend: 0x0, symName: __ZN3std4sync4once4Once15call_once_force17ha51937cdbebca99fE, symObjAddr: 0x1224, symBinAddr: 0xEA94, symSize: 0xD4 }
  - { offset: 0x36E10, size: 0x8, addend: 0x0, symName: __ZN3std4sync4once4Once15call_once_force17hd3fa181edd5285f3E, symObjAddr: 0x12F8, symBinAddr: 0xEB68, symSize: 0xD4 }
  - { offset: 0x36F85, size: 0x8, addend: 0x0, symName: __ZN3std4sync4once4Once3new17h5168cc42a8bfb4a5E, symObjAddr: 0x1628, symBinAddr: 0xED90, symSize: 0x28 }
  - { offset: 0x36FFD, size: 0x8, addend: 0x0, symName: __ZN3std4sync4once4Once9call_once17h8ee07b713ef814bdE, symObjAddr: 0x1650, symBinAddr: 0xEDB8, symSize: 0xDC }
  - { offset: 0x370C2, size: 0x8, addend: 0x0, symName: __ZN3std4sync4once4Once9call_once17hc1a501cf71d63044E, symObjAddr: 0x172C, symBinAddr: 0xEE94, symSize: 0xD4 }
  - { offset: 0x3721C, size: 0x8, addend: 0x0, symName: '__ZN3std4sync6poison5mutex14Mutex$LT$T$GT$3new17h297e49ad2183f631E', symObjAddr: 0x18C8, symBinAddr: 0xF030, symSize: 0x60 }
  - { offset: 0x372F8, size: 0x8, addend: 0x0, symName: '__ZN3std4sync6poison5mutex14Mutex$LT$T$GT$3new17haca4e4c5ae8a772eE', symObjAddr: 0x1928, symBinAddr: 0xF090, symSize: 0x44 }
  - { offset: 0x373E7, size: 0x8, addend: 0x0, symName: '__ZN3std4sync6poison5mutex14Mutex$LT$T$GT$4lock17hd76728ec295a7874E', symObjAddr: 0x19B4, symBinAddr: 0xF0D4, symSize: 0x48 }
  - { offset: 0x374B9, size: 0x8, addend: 0x0, symName: '__ZN3std4sync6poison5mutex14Mutex$LT$T$GT$4lock17heb6850a117f8e884E', symObjAddr: 0x19FC, symBinAddr: 0xF11C, symSize: 0x48 }
  - { offset: 0x378AA, size: 0x8, addend: 0x0, symName: '__ZN127_$LT$pyo3..instance..Bound$LT$pyo3..types..traceback..PyTraceback$GT$$u20$as$u20$pyo3..types..traceback..PyTracebackMethods$GT$6format8INTERNED17h2bf20fcdc853f338E', symObjAddr: 0x3F20, symBinAddr: 0x6C460, symSize: 0x0 }
  - { offset: 0x378C4, size: 0x8, addend: 0x0, symName: '__ZN127_$LT$pyo3..instance..Bound$LT$pyo3..types..traceback..PyTraceback$GT$$u20$as$u20$pyo3..types..traceback..PyTracebackMethods$GT$6format8INTERNED17h8071ddf0e25ed09fE', symObjAddr: 0x3F40, symBinAddr: 0x6C480, symSize: 0x0 }
  - { offset: 0x378DE, size: 0x8, addend: 0x0, symName: '__ZN127_$LT$pyo3..instance..Bound$LT$pyo3..types..traceback..PyTraceback$GT$$u20$as$u20$pyo3..types..traceback..PyTracebackMethods$GT$6format8INTERNED17h93b918d7484c93cbE', symObjAddr: 0x3F60, symBinAddr: 0x6C4A0, symSize: 0x0 }
  - { offset: 0x37B3A, size: 0x8, addend: 0x0, symName: '__ZN4pyo311conversions3std6string90_$LT$impl$u20$pyo3..conversion..IntoPyObject$u20$for$u20$alloc..borrow..Cow$LT$str$GT$$GT$13into_pyobject17h2d1f8f7240fe4f96E', symObjAddr: 0xE50, symBinAddr: 0xF954, symSize: 0x74 }
  - { offset: 0x37D47, size: 0x8, addend: 0x0, symName: '__ZN152_$LT$core..result..Result$LT$pyo3..instance..Bound$LT$pyo3..types..any..PyAny$GT$$C$pyo3..err..PyErr$GT$$u20$as$u20$pyo3..py_result_ext..PyResultExt$GT$19cast_into_unchecked28_$u7b$$u7b$closure$u7d$$u7d$17h18533b50b10265c0E', symObjAddr: 0xB4, symBinAddr: 0xF6A8, symSize: 0x24 }
  - { offset: 0x37D86, size: 0x8, addend: 0x0, symName: '__ZN152_$LT$core..result..Result$LT$pyo3..instance..Bound$LT$pyo3..types..any..PyAny$GT$$C$pyo3..err..PyErr$GT$$u20$as$u20$pyo3..py_result_ext..PyResultExt$GT$19cast_into_unchecked28_$u7b$$u7b$closure$u7d$$u7d$17h65223947a0c1195bE', symObjAddr: 0x120, symBinAddr: 0xF6CC, symSize: 0x24 }
  - { offset: 0x37DC5, size: 0x8, addend: 0x0, symName: '__ZN152_$LT$core..result..Result$LT$pyo3..instance..Bound$LT$pyo3..types..any..PyAny$GT$$C$pyo3..err..PyErr$GT$$u20$as$u20$pyo3..py_result_ext..PyResultExt$GT$19cast_into_unchecked28_$u7b$$u7b$closure$u7d$$u7d$17h6ffcae067747f9f9E', symObjAddr: 0x144, symBinAddr: 0xF6F0, symSize: 0x24 }
  - { offset: 0x37E26, size: 0x8, addend: 0x0, symName: __ZN4pyo310conversion15IntoPyObjectExt22into_pyobject_or_pyerr17h59bcefeaa18057cdE, symObjAddr: 0x9DC, symBinAddr: 0xF8FC, symSize: 0x58 }
  - { offset: 0x381BC, size: 0x8, addend: 0x0, symName: __ZN4core3ptr9alignment9Alignment13new_unchecked18precondition_check17h65c83109e2d1fe35E, symObjAddr: 0x6D0, symBinAddr: 0xF88C, symSize: 0x70 }
  - { offset: 0x38C64, size: 0x8, addend: 0x0, symName: '__ZN31_$LT$dyn$u20$core..any..Any$GT$12downcast_ref17h83e16311ba4afca0E', symObjAddr: 0x318, symBinAddr: 0xF714, symSize: 0xA4 }
  - { offset: 0x38D55, size: 0x8, addend: 0x0, symName: '__ZN31_$LT$dyn$u20$core..any..Any$GT$12downcast_ref17ha220a64056f8cf5eE', symObjAddr: 0x3BC, symBinAddr: 0xF7B8, symSize: 0xA4 }
  - { offset: 0x38EC0, size: 0x8, addend: 0x0, symName: '__ZN54_$LT$dyn$u20$core..any..Any$u2b$core..marker..Send$GT$12downcast_ref17h0165bf66e45deea4E', symObjAddr: 0x1064, symBinAddr: 0xF9DC, symSize: 0x2C }
  - { offset: 0x38EF7, size: 0x8, addend: 0x0, symName: '__ZN54_$LT$dyn$u20$core..any..Any$u2b$core..marker..Send$GT$12downcast_ref17h731e32868aa25f6fE', symObjAddr: 0x1090, symBinAddr: 0xFA08, symSize: 0x2C }
  - { offset: 0x38F3A, size: 0x8, addend: 0x0, symName: '__ZN44_$LT$$RF$T$u20$as$u20$core..fmt..Display$GT$3fmt17hbb86d6857456c638E', symObjAddr: 0x6A0, symBinAddr: 0xF85C, symSize: 0x30 }
  - { offset: 0x3901F, size: 0x8, addend: 0x0, symName: '__ZN50_$LT$T$u20$as$u20$core..convert..Into$LT$U$GT$$GT$4into17h390cb2f64479c8b4E', symObjAddr: 0x1050, symBinAddr: 0xF9C8, symSize: 0x14 }
  - { offset: 0x395E2, size: 0x8, addend: 0x0, symName: '__ZN5alloc6string94_$LT$impl$u20$core..convert..From$LT$$RF$str$GT$$u20$for$u20$alloc..borrow..Cow$LT$str$GT$$GT$4from17hf8428fee1cfbbd80E', symObjAddr: 0x118C, symBinAddr: 0xFAD4, symSize: 0x2C }
  - { offset: 0x3975C, size: 0x8, addend: 0x0, symName: __ZN5alloc6borrow3Cow8Borrowed17h18a8944acd2f9f90E, symObjAddr: 0x1160, symBinAddr: 0xFAA8, symSize: 0x2C }
  - { offset: 0x39794, size: 0x8, addend: 0x0, symName: '__ZN66_$LT$alloc..borrow..Cow$LT$B$GT$$u20$as$u20$core..fmt..Display$GT$3fmt17h152aae326d09a60dE', symObjAddr: 0x1260, symBinAddr: 0xFB00, symSize: 0x84 }
  - { offset: 0x3984C, size: 0x8, addend: 0x0, symName: '__ZN71_$LT$alloc..borrow..Cow$LT$B$GT$$u20$as$u20$core..ops..deref..Deref$GT$5deref17h2102e1e7b4a584d5E', symObjAddr: 0x12E4, symBinAddr: 0xFB84, symSize: 0x78 }
  - { offset: 0x39B14, size: 0x8, addend: 0x0, symName: '__ZN5alloc6borrow12Cow$LT$B$GT$10into_owned17hae7e5bb01feed30fE', symObjAddr: 0x10BC, symBinAddr: 0xFA34, symSize: 0x74 }
  - { offset: 0x3A5A9, size: 0x8, addend: 0x0, symName: '__ZN100_$LT$core..array..iter..iter_inner..PolymorphicIter$LT$DATA$GT$$u20$as$u20$core..ops..drop..Drop$GT$4drop17h349b5e3332078df0E', symObjAddr: 0x30, symBinAddr: 0xFBFC, symSize: 0x30 }
  - { offset: 0x3B0DA, size: 0x8, addend: 0x0, symName: __ZN4core4char7methods15encode_utf8_raw8do_panic7runtime17h12094318d58f3a7fE, symObjAddr: 0x1654, symBinAddr: 0x10100, symSize: 0xC4 }
  - { offset: 0x3B1D7, size: 0x8, addend: 0x0, symName: __ZN4core4char7methods15encode_utf8_raw17h34b31af5b746da42E, symObjAddr: 0x1554, symBinAddr: 0x10000, symSize: 0x100 }
  - { offset: 0x3B311, size: 0x8, addend: 0x0, symName: __ZN4core4char7methods25encode_utf8_raw_unchecked17h5da518c2ab85b9d6E, symObjAddr: 0x18D4, symBinAddr: 0x101C4, symSize: 0x188 }
  - { offset: 0x3B868, size: 0x8, addend: 0x0, symName: '__ZN3std3sys4sync5mutex7pthread5Mutex3get28_$u7b$$u7b$closure$u7d$$u7d$17h2f037a0cc2340e3fE', symObjAddr: 0x418, symBinAddr: 0xFC2C, symSize: 0xF4 }
  - { offset: 0x3BBA7, size: 0x8, addend: 0x0, symName: __ZN4core3ffi5c_str4CStr6as_ptr17h6a12d40224f3e437E, symObjAddr: 0xE7C, symBinAddr: 0xFD20, symSize: 0x18 }
  - { offset: 0x3BC80, size: 0x8, addend: 0x0, symName: __ZN4core3fmt9Arguments23as_statically_known_str17h09a48822f0e476b3E, symObjAddr: 0xFD0, symBinAddr: 0xFD38, symSize: 0x104 }
  - { offset: 0x3BE1D, size: 0x8, addend: 0x0, symName: __ZN4core3fmt9Arguments3new17h359c7495d6424b04E, symObjAddr: 0x117C, symBinAddr: 0xFE3C, symSize: 0x1C }
  - { offset: 0x3BE9D, size: 0x8, addend: 0x0, symName: __ZN4core3fmt9Arguments3new17h4fcae40f6e641e71E, symObjAddr: 0x11D0, symBinAddr: 0xFE58, symSize: 0x1C }
  - { offset: 0x3BF85, size: 0x8, addend: 0x0, symName: __ZN4core3fmt9Arguments3new17h9b475708619f5a9bE, symObjAddr: 0x125C, symBinAddr: 0xFE74, symSize: 0x1C }
  - { offset: 0x3C02C, size: 0x8, addend: 0x0, symName: __ZN4core3fmt9Arguments3new17hb98db98b97690c3fE, symObjAddr: 0x12E8, symBinAddr: 0xFE90, symSize: 0x1C }
  - { offset: 0x3C148, size: 0x8, addend: 0x0, symName: __ZN4core3fmt9Arguments3new17hf45147a66a9554d3E, symObjAddr: 0x13C8, symBinAddr: 0xFEAC, symSize: 0x1C }
  - { offset: 0x3C1AE, size: 0x8, addend: 0x0, symName: __ZN4core3fmt9Arguments3new17hfc7ae00fd1d95a99E, symObjAddr: 0x141C, symBinAddr: 0xFEC8, symSize: 0x1C }
  - { offset: 0x3C1E0, size: 0x8, addend: 0x0, symName: __ZN4core3fmt9Arguments8from_str17hed65318cb616a88eE, symObjAddr: 0x1438, symBinAddr: 0xFEE4, symSize: 0x20 }
  - { offset: 0x3C203, size: 0x8, addend: 0x0, symName: __ZN4core3fmt9Formatter9write_fmt17h1706845fd9a6d130E, symObjAddr: 0x1458, symBinAddr: 0xFF04, symSize: 0xA4 }
  - { offset: 0x3C260, size: 0x8, addend: 0x0, symName: '__ZN4core4cell13Cell$LT$T$GT$3get17h87328f321b4c9547E', symObjAddr: 0x14FC, symBinAddr: 0xFFA8, symSize: 0x18 }
  - { offset: 0x3C2B4, size: 0x8, addend: 0x0, symName: '__ZN4core4cell13Cell$LT$T$GT$3set17h79f839054bb45d0fE', symObjAddr: 0x1514, symBinAddr: 0xFFC0, symSize: 0x1C }
  - { offset: 0x3C32A, size: 0x8, addend: 0x0, symName: '__ZN4core4cell13Cell$LT$T$GT$7replace17hda746cfb6798f080E', symObjAddr: 0x1530, symBinAddr: 0xFFDC, symSize: 0x24 }
  - { offset: 0x3C5C4, size: 0x8, addend: 0x0, symName: '__ZN4core5array4iter10iter_inner78PolymorphicIter$LT$$u5b$core..mem..maybe_uninit..MaybeUninit$LT$T$GT$$u5d$$GT$4next17h5d5b41f02b11cc76E', symObjAddr: 0x206C, symBinAddr: 0x1034C, symSize: 0x170 }
  - { offset: 0x3C800, size: 0x8, addend: 0x0, symName: __ZN4pyo35types5float7PyFloat3new17h747cc42f4f7cdebaE, symObjAddr: 0x42B8, symBinAddr: 0x104BC, symSize: 0x30 }
  - { offset: 0x3D0D6, size: 0x8, addend: 0x0, symName: '__ZN4core3ptr9const_ptr33_$LT$impl$u20$$BP$const$u20$T$GT$20offset_from_unsigned18precondition_check17h2e3bc1ad60a87918E', symObjAddr: 0xFB4, symBinAddr: 0x10518, symSize: 0x60 }
  - { offset: 0x3D141, size: 0x8, addend: 0x0, symName: '__ZN4core3ptr9const_ptr33_$LT$impl$u20$$BP$const$u20$T$GT$7is_null17h9b89fb65bdd251d7E', symObjAddr: 0x102C, symBinAddr: 0x10578, symSize: 0x18 }
  - { offset: 0x3D1CC, size: 0x8, addend: 0x0, symName: '__ZN4core3cmp5impls54_$LT$impl$u20$core..cmp..PartialEq$u20$for$u20$i32$GT$2ne17he393fb08fb1660ecE', symObjAddr: 0xE3C, symBinAddr: 0x104EC, symSize: 0x2C }
  - { offset: 0x3D84A, size: 0x8, addend: 0x0, symName: __ZN4core5alloc6layout6Layout25from_size_align_unchecked18precondition_check17h3d6b622e04e88c31E, symObjAddr: 0x1124, symBinAddr: 0x10590, symSize: 0xBC }
  - { offset: 0x3E5EB, size: 0x8, addend: 0x0, symName: '__ZN5alloc3vec16Vec$LT$T$C$A$GT$7set_len18precondition_check17h023be73122b4a479E', symObjAddr: 0x310C, symBinAddr: 0x1068C, symSize: 0x60 }
  - { offset: 0x3EB11, size: 0x8, addend: 0x0, symName: '__ZN67_$LT$alloc..vec..Vec$LT$T$GT$$u20$as$u20$core..default..Default$GT$7default17h9bf36348845e9ff7E', symObjAddr: 0x3AC8, symBinAddr: 0x107DC, symSize: 0x14 }
  - { offset: 0x3EB33, size: 0x8, addend: 0x0, symName: '__ZN67_$LT$alloc..vec..Vec$LT$T$GT$$u20$as$u20$core..default..Default$GT$7default17h9bf36348845e9ff7E', symObjAddr: 0x3AC8, symBinAddr: 0x107DC, symSize: 0x14 }
  - { offset: 0x3EB54, size: 0x8, addend: 0x0, symName: '__ZN70_$LT$alloc..vec..Vec$LT$T$C$A$GT$$u20$as$u20$core..ops..drop..Drop$GT$4drop17hf56b70546fd8d0bbE', symObjAddr: 0x3CD4, symBinAddr: 0x107F0, symSize: 0x24 }
  - { offset: 0x3EC0A, size: 0x8, addend: 0x0, symName: '__ZN90_$LT$alloc..vec..Vec$LT$T$C$A$GT$$u20$as$u20$core..iter..traits..collect..IntoIterator$GT$9into_iter17h92b60aa25c9c945eE', symObjAddr: 0x3E08, symBinAddr: 0x10814, symSize: 0xA8 }
  - { offset: 0x3F7F8, size: 0x8, addend: 0x0, symName: '__ZN5alloc3vec12Vec$LT$T$GT$3new17ha9e58964ec237684E', symObjAddr: 0x16C0, symBinAddr: 0x1064C, symSize: 0x14 }
  - { offset: 0x3F8DC, size: 0x8, addend: 0x0, symName: '__ZN5alloc3vec16Vec$LT$T$C$A$GT$4push17hd5c08bedde096c21E', symObjAddr: 0x2D4C, symBinAddr: 0x10660, symSize: 0x2C }
  - { offset: 0x3F96C, size: 0x8, addend: 0x0, symName: '__ZN5alloc3vec16Vec$LT$T$C$A$GT$8is_empty17h518c811b5efaccddE', symObjAddr: 0x318C, symBinAddr: 0x106EC, symSize: 0x20 }
  - { offset: 0x3FAED, size: 0x8, addend: 0x0, symName: '__ZN5alloc3vec16Vec$LT$T$C$A$GT$8push_mut17h9c7c8ae980190e68E', symObjAddr: 0x35C4, symBinAddr: 0x1070C, symSize: 0xD0 }
  - { offset: 0x40C99, size: 0x8, addend: 0x0, symName: '__ZN82_$LT$core..array..iter..IntoIter$LT$T$C$_$GT$$u20$as$u20$core..ops..drop..Drop$GT$4drop17h966bb19ba0a59b04E', symObjAddr: 0x9528, symBinAddr: 0x11050, symSize: 0x30 }
  - { offset: 0x40CF0, size: 0x8, addend: 0x0, symName: '__ZN99_$LT$core..array..iter..IntoIter$LT$T$C$_$GT$$u20$as$u20$core..iter..traits..iterator..Iterator$GT$4next17h24af79a120d1774cE', symObjAddr: 0x9674, symBinAddr: 0x11080, symSize: 0x2C }
  - { offset: 0x414B3, size: 0x8, addend: 0x0, symName: __ZN4core4iter6traits8iterator8Iterator9enumerate17h68809bcacf22bf2dE, symObjAddr: 0x530, symBinAddr: 0x108BC, symSize: 0x18 }
  - { offset: 0x414E4, size: 0x8, addend: 0x0, symName: __ZN4core4iter6traits8iterator8Iterator9enumerate17h68809bcacf22bf2dE, symObjAddr: 0x530, symBinAddr: 0x108BC, symSize: 0x18 }
  - { offset: 0x41585, size: 0x8, addend: 0x0, symName: __ZN4core9ub_checks23maybe_is_nonoverlapping7runtime17h6a07bfb7c0c2f13bE, symObjAddr: 0x7C4, symBinAddr: 0x108D4, symSize: 0xD8 }
  - { offset: 0x41AF3, size: 0x8, addend: 0x0, symName: '__ZN63_$LT$alloc..alloc..Global$u20$as$u20$core..alloc..Allocator$GT$10deallocate17hc5014d0f44704ab2E', symObjAddr: 0x926C, symBinAddr: 0x10FF8, symSize: 0x58 }
  - { offset: 0x41BC2, size: 0x8, addend: 0x0, symName: __ZN5alloc5alloc15exchange_malloc17h2e9eb86e33460eabE, symObjAddr: 0x8D24, symBinAddr: 0x10DB4, symSize: 0xB0 }
  - { offset: 0x4244F, size: 0x8, addend: 0x0, symName: '__ZN4pyo311conversions3std6string68_$LT$impl$u20$pyo3..conversion..IntoPyObject$u20$for$u20$$RF$str$GT$13into_pyobject17ha56ecbb43968b071E', symObjAddr: 0x261C, symBinAddr: 0x109AC, symSize: 0x28 }
  - { offset: 0x4285D, size: 0x8, addend: 0x0, symName: __ZN4pyo36marker6Python15assume_attached17hb75b463094c8833bE, symObjAddr: 0x5988, symBinAddr: 0x109D4, symSize: 0x4 }
  - { offset: 0x428DF, size: 0x8, addend: 0x0, symName: __ZN4pyo36marker6Python6attach17h464719e8044a02b5E, symObjAddr: 0x5C94, symBinAddr: 0x109D8, symSize: 0xE8 }
  - { offset: 0x4292A, size: 0x8, addend: 0x0, symName: __ZN4pyo36marker6Python6attach17h5ad4ac39f9139c19E, symObjAddr: 0x5D7C, symBinAddr: 0x10AC0, symSize: 0xE8 }
  - { offset: 0x42975, size: 0x8, addend: 0x0, symName: __ZN4pyo36marker6Python6attach17h8537c0329b912c98E, symObjAddr: 0x5E64, symBinAddr: 0x10BA8, symSize: 0xF4 }
  - { offset: 0x429CE, size: 0x8, addend: 0x0, symName: __ZN4pyo36marker6Python6detach17h3969c9e5676fff90E, symObjAddr: 0x6034, symBinAddr: 0x10C9C, symSize: 0xB0 }
  - { offset: 0x42A49, size: 0x8, addend: 0x0, symName: __ZN4pyo36marker6Python6import17h8951480da3826c6fE, symObjAddr: 0x60E4, symBinAddr: 0x10D4C, symSize: 0x24 }
  - { offset: 0x42A90, size: 0x8, addend: 0x0, symName: __ZN4pyo36marker6Python6import17hdf695950d7ec535bE, symObjAddr: 0x6108, symBinAddr: 0x10D70, symSize: 0x28 }
  - { offset: 0x42AD7, size: 0x8, addend: 0x0, symName: __ZN4pyo36marker6Python8get_type17h06a5001b1e869b42E, symObjAddr: 0x617C, symBinAddr: 0x10D98, symSize: 0x1C }
  - { offset: 0x42CC7, size: 0x8, addend: 0x0, symName: __ZN5alloc5alloc6Global18alloc_impl_runtime17hb485f6cf7d187a63E, symObjAddr: 0x8DD4, symBinAddr: 0x10E64, symSize: 0x194 }
  - { offset: 0x4317A, size: 0x8, addend: 0x0, symName: __ZN4core4sync6atomic11atomic_load17h39d0ea5c8e74ad61E, symObjAddr: 0x1014, symBinAddr: 0x11330, symSize: 0xF8 }
  - { offset: 0x431C0, size: 0x8, addend: 0x0, symName: __ZN4core4sync6atomic11atomic_load17h64e44f2029d71bc1E, symObjAddr: 0x110C, symBinAddr: 0x11428, symSize: 0xF8 }
  - { offset: 0x43206, size: 0x8, addend: 0x0, symName: __ZN4core4sync6atomic11atomic_load17hadf8717e8f74d1d0E, symObjAddr: 0x1204, symBinAddr: 0x11520, symSize: 0xF8 }
  - { offset: 0x4324C, size: 0x8, addend: 0x0, symName: __ZN4core4sync6atomic23atomic_compare_exchange17h9fe825445d7527a5E, symObjAddr: 0x1D7C, symBinAddr: 0x11618, symSize: 0x4B4 }
  - { offset: 0x434AA, size: 0x8, addend: 0x0, symName: '__ZN4core3ptr8non_null16NonNull$LT$T$GT$13new_unchecked18precondition_check17hf2ee7b3f8d77eb40E', symObjAddr: 0x79C, symBinAddr: 0x110E8, symSize: 0x58 }
  - { offset: 0x43BD6, size: 0x8, addend: 0x0, symName: '__ZN90_$LT$core..ptr..non_null..NonNull$LT$T$GT$$u20$as$u20$core..convert..From$LT$$RF$T$GT$$GT$4from17h01c1d1d71cd0f305E', symObjAddr: 0x68DC, symBinAddr: 0x11AFC, symSize: 0x14 }
  - { offset: 0x43C0D, size: 0x8, addend: 0x0, symName: '__ZN90_$LT$core..ptr..non_null..NonNull$LT$T$GT$$u20$as$u20$core..convert..From$LT$$RF$T$GT$$GT$4from17h169c757dd7dc5924E', symObjAddr: 0x692C, symBinAddr: 0x11B10, symSize: 0x14 }
  - { offset: 0x43C44, size: 0x8, addend: 0x0, symName: '__ZN90_$LT$core..ptr..non_null..NonNull$LT$T$GT$$u20$as$u20$core..convert..From$LT$$RF$T$GT$$GT$4from17h1bb145a25e09ec71E', symObjAddr: 0x6940, symBinAddr: 0x11B24, symSize: 0x14 }
  - { offset: 0x43C7B, size: 0x8, addend: 0x0, symName: '__ZN90_$LT$core..ptr..non_null..NonNull$LT$T$GT$$u20$as$u20$core..convert..From$LT$$RF$T$GT$$GT$4from17h4c8c37920d674ae7E', symObjAddr: 0x69D4, symBinAddr: 0x11B38, symSize: 0x14 }
  - { offset: 0x43CB2, size: 0x8, addend: 0x0, symName: '__ZN90_$LT$core..ptr..non_null..NonNull$LT$T$GT$$u20$as$u20$core..convert..From$LT$$RF$T$GT$$GT$4from17h62bd5fe4498503fcE', symObjAddr: 0x6A24, symBinAddr: 0x11B4C, symSize: 0x14 }
  - { offset: 0x43CE9, size: 0x8, addend: 0x0, symName: '__ZN90_$LT$core..ptr..non_null..NonNull$LT$T$GT$$u20$as$u20$core..convert..From$LT$$RF$T$GT$$GT$4from17h68129fc9159030bbE', symObjAddr: 0x6A38, symBinAddr: 0x11B60, symSize: 0x14 }
  - { offset: 0x43D20, size: 0x8, addend: 0x0, symName: '__ZN90_$LT$core..ptr..non_null..NonNull$LT$T$GT$$u20$as$u20$core..convert..From$LT$$RF$T$GT$$GT$4from17h94d611df4e672a03E', symObjAddr: 0x6AB0, symBinAddr: 0x11B74, symSize: 0x14 }
  - { offset: 0x43D57, size: 0x8, addend: 0x0, symName: '__ZN90_$LT$core..ptr..non_null..NonNull$LT$T$GT$$u20$as$u20$core..convert..From$LT$$RF$T$GT$$GT$4from17h96cfaf2408bd577eE', symObjAddr: 0x6AC4, symBinAddr: 0x11B88, symSize: 0x14 }
  - { offset: 0x43D8E, size: 0x8, addend: 0x0, symName: '__ZN90_$LT$core..ptr..non_null..NonNull$LT$T$GT$$u20$as$u20$core..convert..From$LT$$RF$T$GT$$GT$4from17hd64e7d1f4516e7b4E', symObjAddr: 0x6B00, symBinAddr: 0x11B9C, symSize: 0x14 }
  - { offset: 0x443A5, size: 0x8, addend: 0x0, symName: __ZN4core4hint16assert_unchecked18precondition_check17h3fcd4b3bd042bbbbE, symObjAddr: 0xC80, symBinAddr: 0x1129C, symSize: 0x58 }
  - { offset: 0x443F0, size: 0x8, addend: 0x0, symName: __ZN4core4hint21unreachable_unchecked18precondition_check17hbe543509a43bda5bE, symObjAddr: 0xCD8, symBinAddr: 0x112F4, symSize: 0x3C }
  - { offset: 0x444EB, size: 0x8, addend: 0x0, symName: __ZN8pyo3_ffi11tupleobject13PyTuple_Check17h03e44db986ea5334E, symObjAddr: 0x6860, symBinAddr: 0x11ACC, symSize: 0x30 }
  - { offset: 0x44E9E, size: 0x8, addend: 0x0, symName: '__ZN4core3ptr8non_null16NonNull$LT$T$GT$13new_unchecked17h1106b3e971736500E', symObjAddr: 0x760, symBinAddr: 0x110AC, symSize: 0x3C }
  - { offset: 0x44EE4, size: 0x8, addend: 0x0, symName: '__ZN4core3ptr8non_null16NonNull$LT$T$GT$3new17hc699c6665146426bE', symObjAddr: 0x84C, symBinAddr: 0x11140, symSize: 0x58 }
  - { offset: 0x44F5A, size: 0x8, addend: 0x0, symName: '__ZN4core3ptr8non_null16NonNull$LT$T$GT$4cast17h10dcad067b6e8f08E', symObjAddr: 0x924, symBinAddr: 0x11198, symSize: 0x14 }
  - { offset: 0x44F9C, size: 0x8, addend: 0x0, symName: '__ZN4core3ptr8non_null16NonNull$LT$T$GT$4cast17h111210b34a7ac164E', symObjAddr: 0x938, symBinAddr: 0x111AC, symSize: 0x14 }
  - { offset: 0x44FDE, size: 0x8, addend: 0x0, symName: '__ZN4core3ptr8non_null16NonNull$LT$T$GT$4cast17h143f4277f88d5003E', symObjAddr: 0x94C, symBinAddr: 0x111C0, symSize: 0x14 }
  - { offset: 0x4502D, size: 0x8, addend: 0x0, symName: '__ZN4core3ptr8non_null16NonNull$LT$T$GT$4cast17h19fe4bccdf082ad2E', symObjAddr: 0x988, symBinAddr: 0x111D4, symSize: 0x14 }
  - { offset: 0x4507C, size: 0x8, addend: 0x0, symName: '__ZN4core3ptr8non_null16NonNull$LT$T$GT$4cast17h221c91f5f3930b74E', symObjAddr: 0x9B0, symBinAddr: 0x111E8, symSize: 0x14 }
  - { offset: 0x450BE, size: 0x8, addend: 0x0, symName: '__ZN4core3ptr8non_null16NonNull$LT$T$GT$4cast17h28ef8910f7fdea8fE', symObjAddr: 0x9C4, symBinAddr: 0x111FC, symSize: 0x14 }
  - { offset: 0x45100, size: 0x8, addend: 0x0, symName: '__ZN4core3ptr8non_null16NonNull$LT$T$GT$4cast17h3167f368a97426b6E', symObjAddr: 0x9D8, symBinAddr: 0x11210, symSize: 0x14 }
  - { offset: 0x4514F, size: 0x8, addend: 0x0, symName: '__ZN4core3ptr8non_null16NonNull$LT$T$GT$4cast17h48258af6c4bbb448E', symObjAddr: 0xA14, symBinAddr: 0x11224, symSize: 0x14 }
  - { offset: 0x45184, size: 0x8, addend: 0x0, symName: '__ZN4core3ptr8non_null16NonNull$LT$T$GT$4cast17h4abcb65691421935E', symObjAddr: 0xA28, symBinAddr: 0x11238, symSize: 0x14 }
  - { offset: 0x451C6, size: 0x8, addend: 0x0, symName: '__ZN4core3ptr8non_null16NonNull$LT$T$GT$4cast17h58adb34c56fa5503E', symObjAddr: 0xA8C, symBinAddr: 0x1124C, symSize: 0x14 }
  - { offset: 0x45208, size: 0x8, addend: 0x0, symName: '__ZN4core3ptr8non_null16NonNull$LT$T$GT$4cast17h73571b798c11ff4fE', symObjAddr: 0xB04, symBinAddr: 0x11260, symSize: 0x14 }
  - { offset: 0x4524A, size: 0x8, addend: 0x0, symName: '__ZN4core3ptr8non_null16NonNull$LT$T$GT$4cast17h75a514dfb7e5d6c2E', symObjAddr: 0xB18, symBinAddr: 0x11274, symSize: 0x14 }
  - { offset: 0x45299, size: 0x8, addend: 0x0, symName: '__ZN4core3ptr8non_null16NonNull$LT$T$GT$4cast17hadf34d7fb3979c8dE', symObjAddr: 0xBB8, symBinAddr: 0x11288, symSize: 0x14 }
  - { offset: 0x46900, size: 0x8, addend: 0x0, symName: '__ZN52_$LT$char$u20$as$u20$core..str..pattern..Pattern$GT$13into_searcher17ha0a55ef7b7883a22E', symObjAddr: 0x2BE0, symBinAddr: 0x11BB0, symSize: 0x114 }
  - { offset: 0x46A1E, size: 0x8, addend: 0x0, symName: '__ZN88_$LT$core..str..pattern..CharSearcher$u20$as$u20$core..str..pattern..ReverseSearcher$GT$15next_match_back17hdcda881b00a6b5aaE', symObjAddr: 0x3D5C, symBinAddr: 0x11CC4, symSize: 0x384 }
  - { offset: 0x4715D, size: 0x8, addend: 0x0, symName: __ZN8pyo3_ffi10listobject12PyList_Check17h5dec61ca6031d74cE, symObjAddr: 0x4138, symBinAddr: 0x12048, symSize: 0x30 }
  - { offset: 0x471D4, size: 0x8, addend: 0x0, symName: '__ZN9once_cell3imp17OnceCell$LT$T$GT$10initialize28_$u7b$$u7b$closure$u7d$$u7d$17h6962e483c95dee8cE', symObjAddr: 0x51B0, symBinAddr: 0x12078, symSize: 0x180 }
  - { offset: 0x4726F, size: 0x8, addend: 0x0, symName: '__ZN9once_cell3imp17OnceCell$LT$T$GT$10initialize28_$u7b$$u7b$closure$u7d$$u7d$17h7c43d6ccc495e6c4E', symObjAddr: 0x5330, symBinAddr: 0x121F8, symSize: 0x1A8 }
  - { offset: 0x47869, size: 0x8, addend: 0x0, symName: '__ZN9once_cell3imp17OnceCell$LT$T$GT$10initialize17had91d679978cb864E', symObjAddr: 0x4A18, symBinAddr: 0x44E44, symSize: 0xAC }
  - { offset: 0x4791A, size: 0x8, addend: 0x0, symName: '__ZN9once_cell3imp17OnceCell$LT$T$GT$10initialize17hb885f18360733848E', symObjAddr: 0x4B98, symBinAddr: 0x44EF0, symSize: 0xA8 }
  - { offset: 0x479D7, size: 0x8, addend: 0x0, symName: '__ZN9once_cell3imp17OnceCell$LT$T$GT$13get_unchecked17ha6390bc48c258cc7E', symObjAddr: 0x6040, symBinAddr: 0x123A0, symSize: 0xC0 }
  - { offset: 0x47A2C, size: 0x8, addend: 0x0, symName: '__ZN9once_cell3imp17OnceCell$LT$T$GT$13get_unchecked17he04cd73fb0e0d1b9E', symObjAddr: 0x61C0, symBinAddr: 0x12460, symSize: 0xC0 }
  - { offset: 0x47A74, size: 0x8, addend: 0x0, symName: '__ZN9once_cell3imp17OnceCell$LT$T$GT$14is_initialized17h5759f335d2bbb94eE', symObjAddr: 0x62B0, symBinAddr: 0x12520, symSize: 0x30 }
  - { offset: 0x47A9F, size: 0x8, addend: 0x0, symName: '__ZN9once_cell3imp17OnceCell$LT$T$GT$14is_initialized17ha6bd3209c39fd1b4E', symObjAddr: 0x62E0, symBinAddr: 0x12550, symSize: 0x30 }
  - { offset: 0x4815A, size: 0x8, addend: 0x0, symName: '__ZN103_$LT$alloc..vec..into_iter..IntoIter$LT$T$C$A$GT$$u20$as$u20$core..iter..traits..iterator..Iterator$GT$4next17h73e7f81381864b6eE', symObjAddr: 0xA8, symBinAddr: 0x12580, symSize: 0x88 }
  - { offset: 0x482B4, size: 0x8, addend: 0x0, symName: '__ZN103_$LT$alloc..vec..into_iter..IntoIter$LT$T$C$A$GT$$u20$as$u20$core..iter..traits..iterator..Iterator$GT$9size_hint17h1381ebbd73688157E', symObjAddr: 0x130, symBinAddr: 0x12608, symSize: 0xB4 }
  - { offset: 0x483DD, size: 0x8, addend: 0x0, symName: '__ZN157_$LT$$LT$alloc..vec..into_iter..IntoIter$LT$T$C$A$GT$$u20$as$u20$core..ops..drop..Drop$GT$..drop..DropGuard$LT$T$C$A$GT$$u20$as$u20$core..ops..drop..Drop$GT$4drop17h0fb6ba90ab4c400fE', symObjAddr: 0xAC4, symBinAddr: 0x12894, symSize: 0x6C }
  - { offset: 0x48549, size: 0x8, addend: 0x0, symName: '__ZN86_$LT$alloc..vec..into_iter..IntoIter$LT$T$C$A$GT$$u20$as$u20$core..ops..drop..Drop$GT$4drop17h33d4ae5d87972dffE', symObjAddr: 0x7C50, symBinAddr: 0x145A8, symSize: 0x64 }
  - { offset: 0x48C6B, size: 0x8, addend: 0x0, symName: '__ZN4core3ptr101drop_in_place$LT$core..result..Result$LT$alloc..borrow..Cow$LT$str$GT$$C$$RF$pyo3..err..PyErr$GT$$GT$17hf79d1209b4780b1fE', symObjAddr: 0x2DBC, symBinAddr: 0x13394, symSize: 0x4C }
  - { offset: 0x48C9A, size: 0x8, addend: 0x0, symName: '__ZN4core3ptr101drop_in_place$LT$std..sys..sync..once_box..OnceBox$LT$std..sys..pal..unix..sync..mutex..Mutex$GT$$GT$17hf0744183c506a289E', symObjAddr: 0x2E74, symBinAddr: 0x133E0, symSize: 0x24 }
  - { offset: 0x48CC9, size: 0x8, addend: 0x0, symName: '__ZN4core3ptr104drop_in_place$LT$core..option..Option$LT$pyo3..instance..Py$LT$pyo3..types..string..PyString$GT$$GT$$GT$17hd5a118285ced8365E', symObjAddr: 0x2FBC, symBinAddr: 0x13404, symSize: 0x44 }
  - { offset: 0x48CF8, size: 0x8, addend: 0x0, symName: '__ZN4core3ptr106drop_in_place$LT$alloc..vec..Vec$LT$core..ptr..non_null..NonNull$LT$pyo3_ffi..object..PyObject$GT$$GT$$GT$17h726e5e47eeeb9368E', symObjAddr: 0x3000, symBinAddr: 0x13448, symSize: 0x5C }
  - { offset: 0x48D27, size: 0x8, addend: 0x0, symName: '__ZN4core3ptr106drop_in_place$LT$core..option..Option$LT$pyo3..instance..Py$LT$pyo3..types..typeobject..PyType$GT$$GT$$GT$17ha13600f812159ff4E', symObjAddr: 0x30A0, symBinAddr: 0x134A4, symSize: 0x44 }
  - { offset: 0x48D56, size: 0x8, addend: 0x0, symName: '__ZN4core3ptr107drop_in_place$LT$core..pin..Pin$LT$alloc..boxed..Box$LT$std..sys..pal..unix..sync..mutex..Mutex$GT$$GT$$GT$17h02b5f87d3349486fE', symObjAddr: 0x314C, symBinAddr: 0x134E8, symSize: 0x24 }
  - { offset: 0x48D85, size: 0x8, addend: 0x0, symName: '__ZN4core3ptr109drop_in_place$LT$core..iter..adapters..enumerate..Enumerate$LT$pyo3..types..tuple..BoundTupleIterator$GT$$GT$17hf5938760918dd268E', symObjAddr: 0x321C, symBinAddr: 0x1350C, symSize: 0x24 }
  - { offset: 0x48DB4, size: 0x8, addend: 0x0, symName: '__ZN4core3ptr113drop_in_place$LT$alloc..raw_vec..RawVec$LT$core..ptr..non_null..NonNull$LT$pyo3_ffi..object..PyObject$GT$$GT$$GT$17hff36f1fd73ade246E', symObjAddr: 0x33B0, symBinAddr: 0x13530, symSize: 0x24 }
  - { offset: 0x48DE3, size: 0x8, addend: 0x0, symName: '__ZN4core3ptr113drop_in_place$LT$std..sync..poison..mutex..Mutex$LT$core..option..Option$LT$std..thread..id..ThreadId$GT$$GT$$GT$17h83c7c23640540d06E', symObjAddr: 0x33F8, symBinAddr: 0x13554, symSize: 0x24 }
  - { offset: 0x48E12, size: 0x8, addend: 0x0, symName: '__ZN4core3ptr116drop_in_place$LT$core..cell..UnsafeCell$LT$core..option..Option$LT$pyo3..err..err_state..PyErrStateInner$GT$$GT$$GT$17hd9c0625daf463f6fE', symObjAddr: 0x3464, symBinAddr: 0x13578, symSize: 0x24 }
  - { offset: 0x48E41, size: 0x8, addend: 0x0, symName: '__ZN4core3ptr118drop_in_place$LT$core..array..iter..IntoIter$LT$pyo3..instance..Bound$LT$pyo3..types..any..PyAny$GT$$C$1_usize$GT$$GT$17he1d9766ae663dd53E', symObjAddr: 0x3634, symBinAddr: 0x1359C, symSize: 0x24 }
  - { offset: 0x48E70, size: 0x8, addend: 0x0, symName: '__ZN4core3ptr118drop_in_place$LT$std..sync..poison..mutex..MutexGuard$LT$core..option..Option$LT$std..thread..id..ThreadId$GT$$GT$$GT$17hdeb028b1f1ad3b75E', symObjAddr: 0x36E8, symBinAddr: 0x135C0, symSize: 0x24 }
  - { offset: 0x48E9F, size: 0x8, addend: 0x0, symName: '__ZN4core3ptr122drop_in_place$LT$alloc..vec..into_iter..IntoIter$LT$core..ptr..non_null..NonNull$LT$pyo3_ffi..object..PyObject$GT$$GT$$GT$17hea26ec4939c661acE', symObjAddr: 0x3834, symBinAddr: 0x135E4, symSize: 0x24 }
  - { offset: 0x48ECE, size: 0x8, addend: 0x0, symName: '__ZN4core3ptr126drop_in_place$LT$core..result..Result$LT$pyo3..instance..Bound$LT$pyo3..types..string..PyString$GT$$C$pyo3..err..PyErr$GT$$GT$17h910765eb993ccd08E', symObjAddr: 0x38DC, symBinAddr: 0x13608, symSize: 0x50 }
  - { offset: 0x48EFD, size: 0x8, addend: 0x0, symName: '__ZN4core3ptr135drop_in_place$LT$core..option..Option$LT$core..pin..Pin$LT$alloc..boxed..Box$LT$std..sys..pal..unix..sync..mutex..Mutex$GT$$GT$$GT$$GT$17hc331d580cce91ad9E', symObjAddr: 0x3ACC, symBinAddr: 0x13658, symSize: 0x44 }
  - { offset: 0x48F2C, size: 0x8, addend: 0x0, symName: '__ZN4core3ptr141drop_in_place$LT$pyo3..err..PyErr..new$LT$pyo3..panic..PanicException$C$$LP$alloc..string..String$C$$RP$$GT$..$u7b$$u7b$closure$u7d$$u7d$$GT$17hef229981f07eb503E', symObjAddr: 0x3DDC, symBinAddr: 0x1369C, symSize: 0x24 }
  - { offset: 0x48F5B, size: 0x8, addend: 0x0, symName: '__ZN4core3ptr144drop_in_place$LT$core..result..Result$LT$$RF$pyo3..instance..Bound$LT$pyo3..types..tuple..PyTuple$GT$$C$pyo3..err..cast_error..CastError$GT$$GT$17hd372d08bf89b1d7cE', symObjAddr: 0x3E68, symBinAddr: 0x136C0, symSize: 0x44 }
  - { offset: 0x48F8A, size: 0x8, addend: 0x0, symName: '__ZN4core3ptr148drop_in_place$LT$core..result..Result$LT$$RF$pyo3..instance..Bound$LT$pyo3..types..typeobject..PyType$GT$$C$pyo3..err..cast_error..CastError$GT$$GT$17haf71d06a9de203e8E', symObjAddr: 0x3FE0, symBinAddr: 0x13704, symSize: 0x44 }
  - { offset: 0x48FB9, size: 0x8, addend: 0x0, symName: '__ZN4core3ptr150drop_in_place$LT$std..sync..poison..mutex..MutexGuard$LT$alloc..vec..Vec$LT$core..ptr..non_null..NonNull$LT$pyo3_ffi..object..PyObject$GT$$GT$$GT$$GT$17ha98a32bf3acbe55fE', symObjAddr: 0x4048, symBinAddr: 0x13748, symSize: 0x24 }
  - { offset: 0x48FE8, size: 0x8, addend: 0x0, symName: '__ZN4core3ptr152drop_in_place$LT$pyo3..err..PyErr..new$LT$pyo3..exceptions..PyTypeError$C$pyo3..err..cast_error..CastErrorArguments$GT$..$u7b$$u7b$closure$u7d$$u7d$$GT$17h5cd3bfabb03e41d0E', symObjAddr: 0x40D4, symBinAddr: 0x1376C, symSize: 0x24 }
  - { offset: 0x49017, size: 0x8, addend: 0x0, symName: '__ZN4core3ptr156drop_in_place$LT$std..sync..poison..PoisonError$LT$std..sync..poison..mutex..MutexGuard$LT$core..option..Option$LT$std..thread..id..ThreadId$GT$$GT$$GT$$GT$17h548ee33f77bcace6E', symObjAddr: 0x41FC, symBinAddr: 0x13790, symSize: 0x24 }
  - { offset: 0x49046, size: 0x8, addend: 0x0, symName: '__ZN4core3ptr157drop_in_place$LT$pyo3..err..err_state..PyErrState..make_normalized..$u7b$$u7b$closure$u7d$$u7d$..$u7b$$u7b$closure$u7d$$u7d$..$u7b$$u7b$closure$u7d$$u7d$$GT$17hd9865d3b6370abe8E', symObjAddr: 0x4220, symBinAddr: 0x137B4, symSize: 0x24 }
  - { offset: 0x49075, size: 0x8, addend: 0x0, symName: '__ZN4core3ptr168drop_in_place$LT$core..iter..adapters..enumerate..Enumerate$LT$core..array..iter..IntoIter$LT$pyo3..instance..Bound$LT$pyo3..types..any..PyAny$GT$$C$1_usize$GT$$GT$$GT$17he78f0b5a684b9a79E', symObjAddr: 0x428C, symBinAddr: 0x137D8, symSize: 0x24 }
  - { offset: 0x490A4, size: 0x8, addend: 0x0, symName: '__ZN4core3ptr188drop_in_place$LT$std..sync..poison..PoisonError$LT$std..sync..poison..mutex..MutexGuard$LT$alloc..vec..Vec$LT$core..ptr..non_null..NonNull$LT$pyo3_ffi..object..PyObject$GT$$GT$$GT$$GT$$GT$17hb2b6a4e64ce41681E', symObjAddr: 0x4364, symBinAddr: 0x137FC, symSize: 0x24 }
  - { offset: 0x490D3, size: 0x8, addend: 0x0, symName: '__ZN4core3ptr192drop_in_place$LT$core..array..iter..iter_inner..PolymorphicIter$LT$$u5b$core..mem..maybe_uninit..MaybeUninit$LT$pyo3..instance..Bound$LT$pyo3..types..any..PyAny$GT$$GT$$u3b$$u20$1$u5d$$GT$$GT$17he9bcfa37262b2b09E', symObjAddr: 0x4388, symBinAddr: 0x13820, symSize: 0x24 }
  - { offset: 0x49102, size: 0x8, addend: 0x0, symName: '__ZN4core3ptr216drop_in_place$LT$$LT$alloc..vec..into_iter..IntoIter$LT$T$C$A$GT$$u20$as$u20$core..ops..drop..Drop$GT$..drop..DropGuard$LT$core..ptr..non_null..NonNull$LT$pyo3_ffi..object..PyObject$GT$$C$alloc..alloc..Global$GT$$GT$17h47183de53c41a7d3E', symObjAddr: 0x44CC, symBinAddr: 0x13844, symSize: 0x24 }
  - { offset: 0x49131, size: 0x8, addend: 0x0, symName: '__ZN4core3ptr219drop_in_place$LT$pyo3..sync..once_lock..init_once_cell_py_attached$LT$pyo3..sync..Interned..get..$u7b$$u7b$closure$u7d$$u7d$$C$pyo3..instance..Py$LT$pyo3..types..string..PyString$GT$$GT$..$u7b$$u7b$closure$u7d$$u7d$$GT$17hf1e42d721b2611cbE', symObjAddr: 0x44F0, symBinAddr: 0x13868, symSize: 0x24 }
  - { offset: 0x49160, size: 0x8, addend: 0x0, symName: '__ZN4core3ptr236drop_in_place$LT$alloc..boxed..Box$LT$dyn$u20$core..ops..function..FnOnce$LT$$LP$pyo3..marker..Python$C$$RP$$GT$$u2b$Output$u20$$u3d$$u20$pyo3..err..err_state..PyErrStateLazyFnOutput$u2b$core..marker..Sync$u2b$core..marker..Send$GT$$GT$17h7042be09a3819016E', symObjAddr: 0x4514, symBinAddr: 0x1388C, symSize: 0x80 }
  - { offset: 0x4918F, size: 0x8, addend: 0x0, symName: '__ZN4core3ptr289drop_in_place$LT$pyo3..sync..once_lock..init_once_cell_py_attached$LT$$LT$pyo3..panic..PanicException$u20$as$u20$pyo3..type_object..PyTypeInfo$GT$..type_object_raw..$u7b$$u7b$closure$u7d$$u7d$$C$pyo3..instance..Py$LT$pyo3..types..typeobject..PyType$GT$$GT$..$u7b$$u7b$closure$u7d$$u7d$$GT$17he643278e3a638e14E', symObjAddr: 0x4668, symBinAddr: 0x1390C, symSize: 0x24 }
  - { offset: 0x491BE, size: 0x8, addend: 0x0, symName: '__ZN4core3ptr357drop_in_place$LT$once_cell..sync..OnceCell$LT$pyo3..instance..Py$LT$pyo3..types..string..PyString$GT$$GT$..get_or_init$LT$pyo3..sync..once_lock..init_once_cell_py_attached$LT$pyo3..sync..Interned..get..$u7b$$u7b$closure$u7d$$u7d$$C$pyo3..instance..Py$LT$pyo3..types..string..PyString$GT$$GT$..$u7b$$u7b$closure$u7d$$u7d$$GT$..$u7b$$u7b$closure$u7d$$u7d$$GT$17he1a64bc047e06c92E', symObjAddr: 0x4870, symBinAddr: 0x13930, symSize: 0x24 }
  - { offset: 0x491ED, size: 0x8, addend: 0x0, symName: '__ZN4core3ptr37drop_in_place$LT$pyo3..err..PyErr$GT$17h167a10c68e8390b4E', symObjAddr: 0x4894, symBinAddr: 0x13954, symSize: 0x24 }
  - { offset: 0x4921C, size: 0x8, addend: 0x0, symName: '__ZN4core3ptr385drop_in_place$LT$core..option..Option$LT$once_cell..sync..OnceCell$LT$pyo3..instance..Py$LT$pyo3..types..string..PyString$GT$$GT$..get_or_init$LT$pyo3..sync..once_lock..init_once_cell_py_attached$LT$pyo3..sync..Interned..get..$u7b$$u7b$closure$u7d$$u7d$$C$pyo3..instance..Py$LT$pyo3..types..string..PyString$GT$$GT$..$u7b$$u7b$closure$u7d$$u7d$$GT$..$u7b$$u7b$closure$u7d$$u7d$$GT$$GT$17he4e625e66ccfe66dE', symObjAddr: 0x48B8, symBinAddr: 0x13978, symSize: 0x44 }
  - { offset: 0x4924B, size: 0x8, addend: 0x0, symName: '__ZN4core3ptr429drop_in_place$LT$once_cell..sync..OnceCell$LT$pyo3..instance..Py$LT$pyo3..types..typeobject..PyType$GT$$GT$..get_or_init$LT$pyo3..sync..once_lock..init_once_cell_py_attached$LT$$LT$pyo3..panic..PanicException$u20$as$u20$pyo3..type_object..PyTypeInfo$GT$..type_object_raw..$u7b$$u7b$closure$u7d$$u7d$$C$pyo3..instance..Py$LT$pyo3..types..typeobject..PyType$GT$$GT$..$u7b$$u7b$closure$u7d$$u7d$$GT$..$u7b$$u7b$closure$u7d$$u7d$$GT$17h4f8d12d4ecbc6181E', symObjAddr: 0x4944, symBinAddr: 0x139BC, symSize: 0x24 }
  - { offset: 0x4927A, size: 0x8, addend: 0x0, symName: '__ZN4core3ptr42drop_in_place$LT$alloc..string..String$GT$17h635a8f57fa19277cE', symObjAddr: 0x4968, symBinAddr: 0x139E0, symSize: 0x24 }
  - { offset: 0x492A9, size: 0x8, addend: 0x0, symName: '__ZN4core3ptr457drop_in_place$LT$core..option..Option$LT$once_cell..sync..OnceCell$LT$pyo3..instance..Py$LT$pyo3..types..typeobject..PyType$GT$$GT$..get_or_init$LT$pyo3..sync..once_lock..init_once_cell_py_attached$LT$$LT$pyo3..panic..PanicException$u20$as$u20$pyo3..type_object..PyTypeInfo$GT$..type_object_raw..$u7b$$u7b$closure$u7d$$u7d$$C$pyo3..instance..Py$LT$pyo3..types..typeobject..PyType$GT$$GT$..$u7b$$u7b$closure$u7d$$u7d$$GT$..$u7b$$u7b$closure$u7d$$u7d$$GT$$GT$17hc8c253248d32c3ebE', symObjAddr: 0x49F8, symBinAddr: 0x13A04, symSize: 0x44 }
  - { offset: 0x492D8, size: 0x8, addend: 0x0, symName: '__ZN4core3ptr46drop_in_place$LT$alloc..vec..Vec$LT$u8$GT$$GT$17h1a7f759ff530ba57E', symObjAddr: 0x4A3C, symBinAddr: 0x13A48, symSize: 0x5C }
  - { offset: 0x49307, size: 0x8, addend: 0x0, symName: '__ZN4core3ptr50drop_in_place$LT$alloc..borrow..Cow$LT$str$GT$$GT$17h945bb3b45a1ff957E', symObjAddr: 0x4BA8, symBinAddr: 0x13AA4, symSize: 0x48 }
  - { offset: 0x49336, size: 0x8, addend: 0x0, symName: '__ZN4core3ptr50drop_in_place$LT$pyo3..impl_..panic..PanicTrap$GT$17h00dcebb420527560E', symObjAddr: 0x4C4C, symBinAddr: 0x13AEC, symSize: 0x24 }
  - { offset: 0x49365, size: 0x8, addend: 0x0, symName: '__ZN4core3ptr53drop_in_place$LT$$LP$alloc..string..String$C$$RP$$GT$17h847f21a25c3e5c2cE', symObjAddr: 0x4E24, symBinAddr: 0x13B10, symSize: 0x24 }
  - { offset: 0x49394, size: 0x8, addend: 0x0, symName: '__ZN4core3ptr53drop_in_place$LT$alloc..raw_vec..RawVec$LT$u8$GT$$GT$17h3f5fcd5d3254993dE', symObjAddr: 0x4E48, symBinAddr: 0x13B34, symSize: 0x24 }
  - { offset: 0x493C3, size: 0x8, addend: 0x0, symName: '__ZN4core3ptr53drop_in_place$LT$pyo3..err..cast_error..CastError$GT$17h5b51c1195b16cfa8E', symObjAddr: 0x4E6C, symBinAddr: 0x13B58, symSize: 0x24 }
  - { offset: 0x493F2, size: 0x8, addend: 0x0, symName: '__ZN4core3ptr53drop_in_place$LT$pyo3..err..err_state..PyErrState$GT$17h5e8d9f7cb1561237E', symObjAddr: 0x4E90, symBinAddr: 0x13B7C, symSize: 0x64 }
  - { offset: 0x49421, size: 0x8, addend: 0x0, symName: '__ZN4core3ptr55drop_in_place$LT$pyo3..internal..state..AttachGuard$GT$17hacf60a362e90b0ffE', symObjAddr: 0x4F74, symBinAddr: 0x13BE0, symSize: 0x60 }
  - { offset: 0x49450, size: 0x8, addend: 0x0, symName: '__ZN4core3ptr57drop_in_place$LT$pyo3..internal..state..SuspendAttach$GT$17h245a5c2b78256efbE', symObjAddr: 0x501C, symBinAddr: 0x13C40, symSize: 0x24 }
  - { offset: 0x4947F, size: 0x8, addend: 0x0, symName: '__ZN4core3ptr58drop_in_place$LT$pyo3..err..err_state..PyErrStateInner$GT$17h30588ea4dfeccdc3E', symObjAddr: 0x50B4, symBinAddr: 0x13C64, symSize: 0x58 }
  - { offset: 0x494AE, size: 0x8, addend: 0x0, symName: '__ZN4core3ptr58drop_in_place$LT$std..sys..sync..mutex..pthread..Mutex$GT$17ha1596e490f399f2bE', symObjAddr: 0x510C, symBinAddr: 0x13CBC, symSize: 0x5C }
  - { offset: 0x494DD, size: 0x8, addend: 0x0, symName: '__ZN4core3ptr59drop_in_place$LT$pyo3..types..tuple..BoundTupleIterator$GT$17hbdc79936bd8c7cceE', symObjAddr: 0x518C, symBinAddr: 0x13D18, symSize: 0x24 }
  - { offset: 0x4950C, size: 0x8, addend: 0x0, symName: '__ZN4core3ptr60drop_in_place$LT$std..sys..pal..unix..sync..mutex..Mutex$GT$17h5887aeac04649a45E', symObjAddr: 0x51B0, symBinAddr: 0x13D3C, symSize: 0x24 }
  - { offset: 0x4953B, size: 0x8, addend: 0x0, symName: '__ZN4core3ptr62drop_in_place$LT$pyo3..err..cast_error..CastErrorArguments$GT$17hbd819460cdbdea69E', symObjAddr: 0x52BC, symBinAddr: 0x13D60, symSize: 0x60 }
  - { offset: 0x4956A, size: 0x8, addend: 0x0, symName: '__ZN4core3ptr63drop_in_place$LT$pyo3..err..err_state..PyErrStateNormalized$GT$17h6f58d88010601e83E', symObjAddr: 0x5340, symBinAddr: 0x13DC0, symSize: 0x24 }
  - { offset: 0x49599, size: 0x8, addend: 0x0, symName: '__ZN4core3ptr70drop_in_place$LT$core..option..Option$LT$alloc..string..String$GT$$GT$17h0a1196b753965afbE', symObjAddr: 0x55C4, symBinAddr: 0x13DE4, symSize: 0x48 }
  - { offset: 0x495C8, size: 0x8, addend: 0x0, symName: '__ZN4core3ptr70drop_in_place$LT$pyo3..instance..Py$LT$pyo3..types..any..PyAny$GT$$GT$17ha7eb6b53a7f2b42dE', symObjAddr: 0x5668, symBinAddr: 0x13E2C, symSize: 0x24 }
  - { offset: 0x495F7, size: 0x8, addend: 0x0, symName: '__ZN4core3ptr73drop_in_place$LT$pyo3..instance..Bound$LT$pyo3..types..any..PyAny$GT$$GT$17hc5c4d4c581eb9393E', symObjAddr: 0x5828, symBinAddr: 0x13E50, symSize: 0x24 }
  - { offset: 0x49626, size: 0x8, addend: 0x0, symName: '__ZN4core3ptr75drop_in_place$LT$core..result..Result$LT$$RF$str$C$pyo3..err..PyErr$GT$$GT$17h4d59240ceca8eeadE', symObjAddr: 0x594C, symBinAddr: 0x13E74, symSize: 0x40 }
  - { offset: 0x49655, size: 0x8, addend: 0x0, symName: '__ZN4core3ptr75drop_in_place$LT$pyo3..instance..Bound$LT$pyo3..types..list..PyList$GT$$GT$17h914ea77e11c74a85E', symObjAddr: 0x59D4, symBinAddr: 0x13EB4, symSize: 0x24 }
  - { offset: 0x49684, size: 0x8, addend: 0x0, symName: '__ZN4core3ptr76drop_in_place$LT$pyo3..instance..Py$LT$pyo3..types..string..PyString$GT$$GT$17h8c82d5f21d6164cbE', symObjAddr: 0x5ABC, symBinAddr: 0x13ED8, symSize: 0x24 }
  - { offset: 0x496B3, size: 0x8, addend: 0x0, symName: '__ZN4core3ptr77drop_in_place$LT$pyo3..instance..Bound$LT$pyo3..types..bytes..PyBytes$GT$$GT$17hfec7c1822d6389a2E', symObjAddr: 0x5AE0, symBinAddr: 0x13EFC, symSize: 0x24 }
  - { offset: 0x496E2, size: 0x8, addend: 0x0, symName: '__ZN4core3ptr77drop_in_place$LT$pyo3..instance..Bound$LT$pyo3..types..tuple..PyTuple$GT$$GT$17h670cbf1eb51dcf66E', symObjAddr: 0x5B28, symBinAddr: 0x13F20, symSize: 0x24 }
  - { offset: 0x49711, size: 0x8, addend: 0x0, symName: '__ZN4core3ptr78drop_in_place$LT$pyo3..instance..Py$LT$pyo3..types..typeobject..PyType$GT$$GT$17h7605e6cd6a740f34E', symObjAddr: 0x5C28, symBinAddr: 0x13F44, symSize: 0x24 }
  - { offset: 0x49740, size: 0x8, addend: 0x0, symName: '__ZN4core3ptr79drop_in_place$LT$pyo3..instance..Bound$LT$pyo3..types..module..PyModule$GT$$GT$17h0a8b3ccdb6bff1b2E', symObjAddr: 0x5DB8, symBinAddr: 0x13F68, symSize: 0x24 }
  - { offset: 0x4976F, size: 0x8, addend: 0x0, symName: '__ZN4core3ptr79drop_in_place$LT$pyo3..instance..Bound$LT$pyo3..types..string..PyString$GT$$GT$17hb5e95bb23ddd4740E', symObjAddr: 0x5DDC, symBinAddr: 0x13F8C, symSize: 0x24 }
  - { offset: 0x4979E, size: 0x8, addend: 0x0, symName: '__ZN4core3ptr80drop_in_place$LT$pyo3..instance..Py$LT$pyo3..exceptions..PyBaseException$GT$$GT$17he4c5b902c329d331E', symObjAddr: 0x5E6C, symBinAddr: 0x13FB0, symSize: 0x24 }
  - { offset: 0x497CD, size: 0x8, addend: 0x0, symName: '__ZN4core3ptr81drop_in_place$LT$pyo3..instance..Bound$LT$pyo3..types..typeobject..PyType$GT$$GT$17had7deb6561ca5659E', symObjAddr: 0x5F40, symBinAddr: 0x13FD4, symSize: 0x24 }
  - { offset: 0x497FC, size: 0x8, addend: 0x0, symName: '__ZN4core3ptr83drop_in_place$LT$$u5b$pyo3..instance..Bound$LT$pyo3..types..any..PyAny$GT$$u5d$$GT$17h186ff97fabe9c675E', symObjAddr: 0x5F64, symBinAddr: 0x13FF8, symSize: 0xB4 }
  - { offset: 0x4982B, size: 0x8, addend: 0x0, symName: '__ZN4core3ptr83drop_in_place$LT$pyo3..instance..Bound$LT$pyo3..exceptions..PyBaseException$GT$$GT$17ha59af13f829d954fE', symObjAddr: 0x6018, symBinAddr: 0x140AC, symSize: 0x24 }
  - { offset: 0x4985A, size: 0x8, addend: 0x0, symName: '__ZN4core3ptr85drop_in_place$LT$alloc..boxed..Box$LT$std..sys..pal..unix..sync..mutex..Mutex$GT$$GT$17h389216c0546697beE', symObjAddr: 0x6084, symBinAddr: 0x140D0, symSize: 0x60 }
  - { offset: 0x49889, size: 0x8, addend: 0x0, symName: '__ZN4core3ptr85drop_in_place$LT$pyo3..instance..Bound$LT$pyo3..types..traceback..PyTraceback$GT$$GT$17h885d50149e8b5e9aE', symObjAddr: 0x6198, symBinAddr: 0x14130, symSize: 0x24 }
  - { offset: 0x498B8, size: 0x8, addend: 0x0, symName: '__ZN4core3ptr86drop_in_place$LT$core..option..Option$LT$pyo3..err..err_state..PyErrStateInner$GT$$GT$17hd5d2029eb2eb8832E', symObjAddr: 0x6204, symBinAddr: 0x14154, symSize: 0x40 }
  - { offset: 0x498E7, size: 0x8, addend: 0x0, symName: '__ZN4core3ptr91drop_in_place$LT$alloc..boxed..Box$LT$dyn$u20$core..any..Any$u2b$core..marker..Send$GT$$GT$17h68de495fa4d46312E', symObjAddr: 0x6340, symBinAddr: 0x14194, symSize: 0x80 }
  - { offset: 0x49916, size: 0x8, addend: 0x0, symName: '__ZN4core3ptr94drop_in_place$LT$$u5b$pyo3..instance..Bound$LT$pyo3..types..any..PyAny$GT$$u3b$$u20$1$u5d$$GT$17hd0c04ccb7cbc1917E', symObjAddr: 0x6508, symBinAddr: 0x14214, symSize: 0xA4 }
  - { offset: 0x4B6D4, size: 0x8, addend: 0x0, symName: '__ZN4core3ops8function6FnOnce40call_once$u7b$$u7b$vtable.shim$u7d$$u7d$17h01f122989e634c94E', symObjAddr: 0x19D0, symBinAddr: 0x12E84, symSize: 0x30 }
  - { offset: 0x4B714, size: 0x8, addend: 0x0, symName: '__ZN4core3ops8function6FnOnce40call_once$u7b$$u7b$vtable.shim$u7d$$u7d$17h0f76839bf624671aE', symObjAddr: 0x1A00, symBinAddr: 0x12EB4, symSize: 0x30 }
  - { offset: 0x4B754, size: 0x8, addend: 0x0, symName: '__ZN4core3ops8function6FnOnce40call_once$u7b$$u7b$vtable.shim$u7d$$u7d$17h2a9eb4a27d112085E', symObjAddr: 0x1B58, symBinAddr: 0x12EE4, symSize: 0x30 }
  - { offset: 0x4B794, size: 0x8, addend: 0x0, symName: '__ZN4core3ops8function6FnOnce40call_once$u7b$$u7b$vtable.shim$u7d$$u7d$17h307c89e446a11feaE', symObjAddr: 0x1B88, symBinAddr: 0x12F14, symSize: 0x30 }
  - { offset: 0x4B7D8, size: 0x8, addend: 0x0, symName: '__ZN4core3ops8function6FnOnce40call_once$u7b$$u7b$vtable.shim$u7d$$u7d$17h330d1869fd976432E', symObjAddr: 0x1BE8, symBinAddr: 0x12F44, symSize: 0x30 }
  - { offset: 0x4B818, size: 0x8, addend: 0x0, symName: '__ZN4core3ops8function6FnOnce40call_once$u7b$$u7b$vtable.shim$u7d$$u7d$17h8771035627459fefE', symObjAddr: 0x1DF4, symBinAddr: 0x12F74, symSize: 0x30 }
  - { offset: 0x4B85C, size: 0x8, addend: 0x0, symName: '__ZN4core3ops8function6FnOnce40call_once$u7b$$u7b$vtable.shim$u7d$$u7d$17h96a045211263c6c3E', symObjAddr: 0x1E94, symBinAddr: 0x12FA4, symSize: 0x24 }
  - { offset: 0x4B8A0, size: 0x8, addend: 0x0, symName: '__ZN4core3ops8function6FnOnce40call_once$u7b$$u7b$vtable.shim$u7d$$u7d$17h9d3d4543deae0c18E', symObjAddr: 0x1EE0, symBinAddr: 0x12FC8, symSize: 0x24 }
  - { offset: 0x4B8E4, size: 0x8, addend: 0x0, symName: '__ZN4core3ops8function6FnOnce40call_once$u7b$$u7b$vtable.shim$u7d$$u7d$17hb0480d624cc8c963E', symObjAddr: 0x1FF8, symBinAddr: 0x12FEC, symSize: 0x24 }
  - { offset: 0x4B928, size: 0x8, addend: 0x0, symName: '__ZN4core3ops8function6FnOnce40call_once$u7b$$u7b$vtable.shim$u7d$$u7d$17hf50317492fdc2f43E', symObjAddr: 0x2260, symBinAddr: 0x13010, symSize: 0x30 }
  - { offset: 0x4B968, size: 0x8, addend: 0x0, symName: __ZN4core3ops8function6FnOnce9call_once17h16148e827f9291c2E, symObjAddr: 0x2404, symBinAddr: 0x13040, symSize: 0x40 }
  - { offset: 0x4B9AD, size: 0x8, addend: 0x0, symName: __ZN4core3ops8function6FnOnce9call_once17h173c6aeb439990d1E, symObjAddr: 0x2444, symBinAddr: 0x13080, symSize: 0x40 }
  - { offset: 0x4B9F2, size: 0x8, addend: 0x0, symName: __ZN4core3ops8function6FnOnce9call_once17h17a36732b9a87a35E, symObjAddr: 0x2484, symBinAddr: 0x130C0, symSize: 0x2C }
  - { offset: 0x4BA36, size: 0x8, addend: 0x0, symName: __ZN4core3ops8function6FnOnce9call_once17h341c46663d5bf49bE, symObjAddr: 0x24B0, symBinAddr: 0x130EC, symSize: 0x24 }
  - { offset: 0x4BA7A, size: 0x8, addend: 0x0, symName: __ZN4core3ops8function6FnOnce9call_once17h35fc23bed79654c2E, symObjAddr: 0x251C, symBinAddr: 0x13110, symSize: 0x4C }
  - { offset: 0x4BABA, size: 0x8, addend: 0x0, symName: __ZN4core3ops8function6FnOnce9call_once17h54a5d65a26ad623bE, symObjAddr: 0x260C, symBinAddr: 0x1315C, symSize: 0x2C }
  - { offset: 0x4BAFE, size: 0x8, addend: 0x0, symName: __ZN4core3ops8function6FnOnce9call_once17h562cd7383aa5ae8eE, symObjAddr: 0x2638, symBinAddr: 0x13188, symSize: 0x2C }
  - { offset: 0x4BB42, size: 0x8, addend: 0x0, symName: __ZN4core3ops8function6FnOnce9call_once17h5bffe053213e7703E, symObjAddr: 0x26C8, symBinAddr: 0x131B4, symSize: 0x24 }
  - { offset: 0x4BB86, size: 0x8, addend: 0x0, symName: __ZN4core3ops8function6FnOnce9call_once17h6075b841443cd997E, symObjAddr: 0x26EC, symBinAddr: 0x131D8, symSize: 0x4C }
  - { offset: 0x4BBC6, size: 0x8, addend: 0x0, symName: __ZN4core3ops8function6FnOnce9call_once17h60ee3f55c2b1a37eE, symObjAddr: 0x2738, symBinAddr: 0x13224, symSize: 0x4C }
  - { offset: 0x4BC06, size: 0x8, addend: 0x0, symName: __ZN4core3ops8function6FnOnce9call_once17h83e83ef25efab74cE, symObjAddr: 0x27CC, symBinAddr: 0x13270, symSize: 0x1C }
  - { offset: 0x4BC4A, size: 0x8, addend: 0x0, symName: __ZN4core3ops8function6FnOnce9call_once17hadfee8cb97470ad7E, symObjAddr: 0x295C, symBinAddr: 0x1328C, symSize: 0x4C }
  - { offset: 0x4BC8A, size: 0x8, addend: 0x0, symName: __ZN4core3ops8function6FnOnce9call_once17hc138fe0e2831d248E, symObjAddr: 0x2A1C, symBinAddr: 0x132D8, symSize: 0x4C }
  - { offset: 0x4BCCE, size: 0x8, addend: 0x0, symName: __ZN4core3ops8function6FnOnce9call_once17hd550bc88e252726aE, symObjAddr: 0x2B04, symBinAddr: 0x13324, symSize: 0x24 }
  - { offset: 0x4BD12, size: 0x8, addend: 0x0, symName: __ZN4core3ops8function6FnOnce9call_once17hd9295e5bdec7a05dE, symObjAddr: 0x2B28, symBinAddr: 0x13348, symSize: 0x4C }
  - { offset: 0x4BE01, size: 0x8, addend: 0x0, symName: '__ZN4core7convert3num71_$LT$impl$u20$core..convert..TryFrom$LT$usize$GT$$u20$for$u20$isize$GT$8try_from17hf72f9801785854adE', symObjAddr: 0x7494, symBinAddr: 0x14458, symSize: 0x5C }
  - { offset: 0x4BE46, size: 0x8, addend: 0x0, symName: '__ZN110_$LT$core..iter..adapters..enumerate..Enumerate$LT$I$GT$$u20$as$u20$core..iter..traits..iterator..Iterator$GT$4next17hc7e8a75ebccb8586E', symObjAddr: 0x458, symBinAddr: 0x126BC, symSize: 0xEC }
  - { offset: 0x4BF2C, size: 0x8, addend: 0x0, symName: '__ZN110_$LT$core..iter..adapters..enumerate..Enumerate$LT$I$GT$$u20$as$u20$core..iter..traits..iterator..Iterator$GT$4next17hd20e85bdb97abea9E', symObjAddr: 0x630, symBinAddr: 0x127A8, symSize: 0xEC }
  - { offset: 0x4C116, size: 0x8, addend: 0x0, symName: '__ZN63_$LT$I$u20$as$u20$core..iter..traits..collect..IntoIterator$GT$9into_iter17h4aacc7dad205e33eE', symObjAddr: 0x7A34, symBinAddr: 0x14580, symSize: 0x14 }
  - { offset: 0x4C14D, size: 0x8, addend: 0x0, symName: '__ZN63_$LT$I$u20$as$u20$core..iter..traits..collect..IntoIterator$GT$9into_iter17h533a0b47b247c52dE', symObjAddr: 0x7A48, symBinAddr: 0x14594, symSize: 0x14 }
  - { offset: 0x4C2D7, size: 0x8, addend: 0x0, symName: '__ZN4core3str21_$LT$impl$u20$str$GT$11rsplit_once17h8820b3d5e4b67139E', symObjAddr: 0x68C8, symBinAddr: 0x142B8, symSize: 0x184 }
  - { offset: 0x4C5D7, size: 0x8, addend: 0x0, symName: '__ZN4core3str21_$LT$impl$u20$str$GT$3len17h34f4d4617889eabeE', symObjAddr: 0x6C30, symBinAddr: 0x1443C, symSize: 0x1C }
  - { offset: 0x4D41C, size: 0x8, addend: 0x0, symName: '__ZN3std6thread5local17LocalKey$LT$T$GT$4with17hbcf09468ca0a6ccbE', symObjAddr: 0xD58, symBinAddr: 0x12900, symSize: 0x48 }
  - { offset: 0x4D487, size: 0x8, addend: 0x0, symName: '__ZN3std6thread5local17LocalKey$LT$T$GT$4with17hea5b27eb9be112bcE', symObjAddr: 0xDE8, symBinAddr: 0x12948, symSize: 0x4C }
  - { offset: 0x4D540, size: 0x8, addend: 0x0, symName: '__ZN3std6thread5local17LocalKey$LT$T$GT$8try_with17h088e8ba1750c0ae8E', symObjAddr: 0xE34, symBinAddr: 0x12994, symSize: 0xD8 }
  - { offset: 0x4D6C2, size: 0x8, addend: 0x0, symName: '__ZN3std6thread5local17LocalKey$LT$T$GT$8try_with17h122bfda3df4208a7E', symObjAddr: 0xF0C, symBinAddr: 0x12A6C, symSize: 0xD8 }
  - { offset: 0x4D844, size: 0x8, addend: 0x0, symName: '__ZN3std6thread5local17LocalKey$LT$T$GT$8try_with17h1ae4699e12a89b43E', symObjAddr: 0xFE4, symBinAddr: 0x12B44, symSize: 0xCC }
  - { offset: 0x4D9C5, size: 0x8, addend: 0x0, symName: '__ZN3std6thread5local17LocalKey$LT$T$GT$8try_with17h2a99c42c2ce32482E', symObjAddr: 0x10B0, symBinAddr: 0x12C10, symSize: 0xCC }
  - { offset: 0x4DB46, size: 0x8, addend: 0x0, symName: '__ZN3std6thread5local17LocalKey$LT$T$GT$8try_with17hd16f5f65c5362346E', symObjAddr: 0x1338, symBinAddr: 0x12CDC, symSize: 0xD0 }
  - { offset: 0x4DCC8, size: 0x8, addend: 0x0, symName: '__ZN3std6thread5local17LocalKey$LT$T$GT$8try_with17hee7e67d907acc63eE', symObjAddr: 0x1408, symBinAddr: 0x12DAC, symSize: 0xD8 }
  - { offset: 0x4DEFF, size: 0x8, addend: 0x0, symName: '__ZN5alloc3vec9into_iter21IntoIter$LT$T$C$A$GT$16as_raw_mut_slice17h47d6f87f372cd342E', symObjAddr: 0x7824, symBinAddr: 0x144B4, symSize: 0xCC }
  - { offset: 0x4E78B, size: 0x8, addend: 0x0, symName: '__ZN4pyo35types5tuple74_$LT$impl$u20$pyo3..conversion..IntoPyObject$u20$for$u20$$LP$T0$C$$RP$$GT$13into_pyobject17h2495864cd557bb84E', symObjAddr: 0x3BC4, symBinAddr: 0x14C30, symSize: 0xD8 }
  - { offset: 0x4EA05, size: 0x8, addend: 0x0, symName: '__ZN47_$LT$T$u20$as$u20$pyo3..err..PyErrArguments$GT$9arguments17h23927fc778ff9911E', symObjAddr: 0x79C, symBinAddr: 0x14680, symSize: 0x128 }
  - { offset: 0x4EAE4, size: 0x8, addend: 0x0, symName: __ZN4pyo310conversion15IntoPyObjectExt11into_py_any17h66848695e6adf34aE, symObjAddr: 0x22C8, symBinAddr: 0x14AFC, symSize: 0x60 }
  - { offset: 0x4EB51, size: 0x8, addend: 0x0, symName: __ZN4pyo310conversion15IntoPyObjectExt17into_bound_py_any17h68bad496f9d3ec33E, symObjAddr: 0x2328, symBinAddr: 0x14B5C, symSize: 0x60 }
  - { offset: 0x4EBD3, size: 0x8, addend: 0x0, symName: '__ZN4pyo311conversions3std6string82_$LT$impl$u20$pyo3..conversion..IntoPyObject$u20$for$u20$alloc..string..String$GT$13into_pyobject17h0df59b06236e0d6eE', symObjAddr: 0x24B0, symBinAddr: 0x14BBC, symSize: 0x74 }
  - { offset: 0x4F65F, size: 0x8, addend: 0x0, symName: '__ZN70_$LT$core..num..error..TryFromIntError$u20$as$u20$core..fmt..Debug$GT$3fmt17h350526a22000a699E', symObjAddr: 0x6C88, symBinAddr: 0x14E1C, symSize: 0x54 }
  - { offset: 0x4F6E4, size: 0x8, addend: 0x0, symName: '__ZN4core3num23_$LT$impl$u20$usize$GT$13unchecked_add18precondition_check17h642c26f446516dbaE', symObjAddr: 0x1D40, symBinAddr: 0x147A8, symSize: 0x64 }
  - { offset: 0x4F7D1, size: 0x8, addend: 0x0, symName: '__ZN4core3str6traits108_$LT$impl$u20$core..slice..index..SliceIndex$LT$str$GT$$u20$for$u20$core..ops..range..Range$LT$usize$GT$$GT$13get_unchecked18precondition_check17h85247f68bdd6eabfE', symObjAddr: 0x1E50, symBinAddr: 0x1480C, symSize: 0x80 }
  - { offset: 0x4F8C1, size: 0x8, addend: 0x0, symName: '__ZN36_$LT$T$u20$as$u20$core..any..Any$GT$7type_id17hf27544e48771162eE', symObjAddr: 0x160, symBinAddr: 0x1460C, symSize: 0x20 }
  - { offset: 0x4FA8B, size: 0x8, addend: 0x0, symName: '__ZN42_$LT$$RF$T$u20$as$u20$core..fmt..Debug$GT$3fmt17h2849a8a6df7558b7E', symObjAddr: 0x4EC, symBinAddr: 0x1462C, symSize: 0x30 }
  - { offset: 0x4FBEC, size: 0x8, addend: 0x0, symName: __ZN4core5slice3raw14from_raw_parts17hee8de281b06b8473E, symObjAddr: 0x1FA8, symBinAddr: 0x1488C, symSize: 0x58 }
  - { offset: 0x4FC34, size: 0x8, addend: 0x0, symName: __ZN4core5slice3raw14from_raw_parts18precondition_check17h79b0094598d439a5E, symObjAddr: 0x2000, symBinAddr: 0x148E4, symSize: 0x10C }
  - { offset: 0x4FD50, size: 0x8, addend: 0x0, symName: __ZN4core5slice3raw18from_raw_parts_mut18precondition_check17h6498033136153725E, symObjAddr: 0x21BC, symBinAddr: 0x149F0, symSize: 0x10C }
  - { offset: 0x50582, size: 0x8, addend: 0x0, symName: __ZN8pyo3_ffi13unicodeobject15PyUnicode_Check17hdab0fcacf4aab755E, symObjAddr: 0x720C, symBinAddr: 0x14EC0, symSize: 0x30 }
  - { offset: 0x50966, size: 0x8, addend: 0x0, symName: '__ZN45_$LT$T$u20$as$u20$alloc..string..ToString$GT$9to_string17hb366a41485bf6f58E', symObjAddr: 0x70C, symBinAddr: 0x1465C, symSize: 0x24 }
  - { offset: 0x509C1, size: 0x8, addend: 0x0, symName: '__ZN76_$LT$alloc..string..String$u20$as$u20$core..convert..From$LT$$RF$str$GT$$GT$4from17h35affdc34ecceeefE', symObjAddr: 0x6D74, symBinAddr: 0x14E70, symSize: 0x50 }
  - { offset: 0x50AAE, size: 0x8, addend: 0x0, symName: '__ZN55_$LT$$RF$str$u20$as$u20$alloc..string..SpecToString$GT$14spec_to_string17hb0a7868513f78be6E', symObjAddr: 0x5D80, symBinAddr: 0x14D08, symSize: 0x5C }
  - { offset: 0x50C13, size: 0x8, addend: 0x0, symName: '__ZN65_$LT$alloc..string..String$u20$as$u20$core..ops..deref..Deref$GT$5deref17h17d71d44e5b953c2E', symObjAddr: 0x62FC, symBinAddr: 0x14DFC, symSize: 0x20 }
  - { offset: 0x50CD2, size: 0x8, addend: 0x0, symName: '__ZN58_$LT$alloc..string..String$u20$as$u20$core..fmt..Debug$GT$3fmt17hf4cdf4966b1e8d4cE', symObjAddr: 0x5DDC, symBinAddr: 0x14D64, symSize: 0x3C }
  - { offset: 0x50DEB, size: 0x8, addend: 0x0, symName: '__ZN60_$LT$alloc..string..String$u20$as$u20$core..fmt..Display$GT$3fmt17h767242b63a7df388E', symObjAddr: 0x61B0, symBinAddr: 0x14DC0, symSize: 0x3C }
  - { offset: 0x511FC, size: 0x8, addend: 0x0, symName: '__ZN5alloc3str83_$LT$impl$u20$core..borrow..Borrow$LT$str$GT$$u20$for$u20$alloc..string..String$GT$6borrow17h8125c3129f69b548E', symObjAddr: 0x5E94, symBinAddr: 0x14DA0, symSize: 0x20 }
  - { offset: 0x51A93, size: 0x8, addend: 0x0, symName: __ZN3std6thread6thread6Thread6unpark17h99d41f5d01525665E, symObjAddr: 0x0, symBinAddr: 0x14EF0, symSize: 0x38 }
  - { offset: 0x51BA3, size: 0x8, addend: 0x0, symName: __ZN4core4sync6atomic11atomic_load17h196a8dc011092eefE, symObjAddr: 0x324, symBinAddr: 0x15170, symSize: 0xF8 }
  - { offset: 0x51BE9, size: 0x8, addend: 0x0, symName: __ZN4core4sync6atomic11atomic_load17h1d05b6f3c3744bc4E, symObjAddr: 0x41C, symBinAddr: 0x15268, symSize: 0xF8 }
  - { offset: 0x51C2F, size: 0x8, addend: 0x0, symName: __ZN4core4sync6atomic12atomic_store17h078431f338a3ba43E, symObjAddr: 0x514, symBinAddr: 0x15360, symSize: 0xFC }
  - { offset: 0x51D5D, size: 0x8, addend: 0x0, symName: __ZN4core4sync6atomic23atomic_compare_exchange17he1b090b34a0f77d2E, symObjAddr: 0x744, symBinAddr: 0x15590, symSize: 0x4B4 }
  - { offset: 0x51DF8, size: 0x8, addend: 0x0, symName: __ZN4core4sync6atomic5fence17h28fc8bba04e63436E, symObjAddr: 0xBF8, symBinAddr: 0x15A44, symSize: 0xB0 }
  - { offset: 0x51EF8, size: 0x8, addend: 0x0, symName: '__ZN4core3ptr100drop_in_place$LT$core..cell..Cell$LT$core..option..Option$LT$std..thread..thread..Thread$GT$$GT$$GT$17h16272254326499e5E', symObjAddr: 0xF8, symBinAddr: 0x14F5C, symSize: 0x24 }
  - { offset: 0x51F27, size: 0x8, addend: 0x0, symName: '__ZN4core3ptr106drop_in_place$LT$core..cell..UnsafeCell$LT$core..option..Option$LT$std..thread..thread..Thread$GT$$GT$$GT$17ha0b4db1484273db7E', symObjAddr: 0x11C, symBinAddr: 0x14F80, symSize: 0x24 }
  - { offset: 0x51F56, size: 0x8, addend: 0x0, symName: '__ZN4core3ptr114drop_in_place$LT$core..pin..Pin$LT$alloc..sync..Arc$LT$std..thread..thread..Inner$C$std..alloc..System$GT$$GT$$GT$17hef17da57be2e2d31E', symObjAddr: 0x140, symBinAddr: 0x14FA4, symSize: 0x24 }
  - { offset: 0x51F85, size: 0x8, addend: 0x0, symName: '__ZN4core3ptr42drop_in_place$LT$once_cell..imp..Guard$GT$17hc8da3a29e8a4c59cE', symObjAddr: 0x164, symBinAddr: 0x14FC8, symSize: 0x24 }
  - { offset: 0x51FB4, size: 0x8, addend: 0x0, symName: '__ZN4core3ptr43drop_in_place$LT$once_cell..imp..Waiter$GT$17h0b81a30ce182602fE', symObjAddr: 0x188, symBinAddr: 0x14FEC, symSize: 0x24 }
  - { offset: 0x51FE3, size: 0x8, addend: 0x0, symName: '__ZN4core3ptr48drop_in_place$LT$std..thread..thread..Thread$GT$17h03f3b19920f7e5f6E', symObjAddr: 0x1AC, symBinAddr: 0x15010, symSize: 0x24 }
  - { offset: 0x52012, size: 0x8, addend: 0x0, symName: '__ZN4core3ptr76drop_in_place$LT$core..option..Option$LT$std..thread..thread..Thread$GT$$GT$17hb6c2ae374d211f0fE', symObjAddr: 0x1D0, symBinAddr: 0x15034, symSize: 0x44 }
  - { offset: 0x52088, size: 0x8, addend: 0x0, symName: '__ZN4core3ptr7mut_ptr31_$LT$impl$u20$$BP$mut$u20$T$GT$7is_null17hed13be49a8a5319fE', symObjAddr: 0x214, symBinAddr: 0x15078, symSize: 0x18 }
  - { offset: 0x5211C, size: 0x8, addend: 0x0, symName: '__ZN4core3ptr92drop_in_place$LT$alloc..sync..Arc$LT$std..thread..thread..Inner$C$std..alloc..System$GT$$GT$17h8ff04da6eb13cc5cE', symObjAddr: 0x22C, symBinAddr: 0x15090, symSize: 0x24 }
  - { offset: 0x5223C, size: 0x8, addend: 0x0, symName: '__ZN72_$LT$core..option..Option$LT$T$GT$$u20$as$u20$core..default..Default$GT$7default17h6865f04e7937d757E', symObjAddr: 0xF88, symBinAddr: 0x15DD4, symSize: 0x8 }
  - { offset: 0x525CE, size: 0x8, addend: 0x0, symName: '__ZN4core3ops8function5impls79_$LT$impl$u20$core..ops..function..FnMut$LT$A$GT$$u20$for$u20$$RF$mut$u20$F$GT$8call_mut17h8d903d8b3dae5174E', symObjAddr: 0xC4, symBinAddr: 0x14F28, symSize: 0x34 }
  - { offset: 0x527B2, size: 0x8, addend: 0x0, symName: '__ZN71_$LT$alloc..sync..Arc$LT$T$C$A$GT$$u20$as$u20$core..ops..drop..Drop$GT$4drop17h0e66e9934f3e71b3E', symObjAddr: 0xF0C, symBinAddr: 0x15D58, symSize: 0x7C }
  - { offset: 0x52B00, size: 0x8, addend: 0x0, symName: __ZN3std6thread6thread6Thread6unpark17h99d41f5d01525665E, symObjAddr: 0x0, symBinAddr: 0x14EF0, symSize: 0x38 }
  - { offset: 0x52C67, size: 0x8, addend: 0x0, symName: '__ZN63_$LT$once_cell..imp..Guard$u20$as$u20$core..ops..drop..Drop$GT$4drop17h4fdf3dba0bdfce14E', symObjAddr: 0xCA8, symBinAddr: 0x15AF4, symSize: 0x250 }
  - { offset: 0x52D67, size: 0x8, addend: 0x0, symName: '__ZN63_$LT$once_cell..imp..Guard$u20$as$u20$core..ops..drop..Drop$GT$4drop28_$u7b$$u7b$closure$u7d$$u7d$17h2b826254fd929e7dE', symObjAddr: 0xEF8, symBinAddr: 0x15D44, symSize: 0x14 }
  - { offset: 0x52DA6, size: 0x8, addend: 0x0, symName: __ZN9once_cell3imp18initialize_or_wait17hb1a6d3a4b02c3fd2E, symObjAddr: 0xF90, symBinAddr: 0x15DDC, symSize: 0x18C }
  - { offset: 0x52E68, size: 0x8, addend: 0x0, symName: '__ZN9once_cell3imp18initialize_or_wait28_$u7b$$u7b$closure$u7d$$u7d$17h87a552c87fdd3f1bE', symObjAddr: 0x111C, symBinAddr: 0x15F68, symSize: 0x18 }
  - { offset: 0x52EA6, size: 0x8, addend: 0x0, symName: __ZN9once_cell3imp4wait17hda56d8b6e05ffb43E, symObjAddr: 0x1134, symBinAddr: 0x15F80, symSize: 0x1EC }
  - { offset: 0x52F4D, size: 0x8, addend: 0x0, symName: '__ZN9once_cell3imp4wait28_$u7b$$u7b$closure$u7d$$u7d$17ha394a3b855ab1634E', symObjAddr: 0x1320, symBinAddr: 0x1616C, symSize: 0x20 }
  - { offset: 0x52F89, size: 0x8, addend: 0x0, symName: '__ZN9once_cell3imp4wait28_$u7b$$u7b$closure$u7d$$u7d$17hc67697c75aca84e1E', symObjAddr: 0x1340, symBinAddr: 0x1618C, symSize: 0x14 }
  - { offset: 0x52FDF, size: 0x8, addend: 0x0, symName: __ZN9once_cell3imp6strict4addr17h0415c7a2e7e63731E, symObjAddr: 0x1354, symBinAddr: 0x161A0, symSize: 0x10 }
  - { offset: 0x53014, size: 0x8, addend: 0x0, symName: __ZN9once_cell3imp6strict8map_addr17h6275ed607376b84eE, symObjAddr: 0x1364, symBinAddr: 0x161B0, symSize: 0x88 }
  - { offset: 0x53063, size: 0x8, addend: 0x0, symName: __ZN9once_cell3imp6strict8map_addr17h9eaeb36f8f972a32E, symObjAddr: 0x13EC, symBinAddr: 0x16238, symSize: 0x88 }
  - { offset: 0x530B2, size: 0x8, addend: 0x0, symName: __ZN9once_cell3imp6strict8map_addr17hb8ee608533128e2fE, symObjAddr: 0x1474, symBinAddr: 0x162C0, symSize: 0x88 }
  - { offset: 0x53101, size: 0x8, addend: 0x0, symName: __ZN9once_cell3imp6strict8map_addr17heaaf16a36ffac71fE, symObjAddr: 0x14FC, symBinAddr: 0x16348, symSize: 0x94 }
  - { offset: 0x53150, size: 0x8, addend: 0x0, symName: __ZN9once_cell3imp6strict9with_addr17h7c57fa951936e030E, symObjAddr: 0x1590, symBinAddr: 0x163DC, symSize: 0x64 }
  - { offset: 0x5326D, size: 0x8, addend: 0x0, symName: '__ZN4core4cell13Cell$LT$T$GT$3new17h20a4dc3223f14c3aE', symObjAddr: 0x268, symBinAddr: 0x150B4, symSize: 0x14 }
  - { offset: 0x532CE, size: 0x8, addend: 0x0, symName: '__ZN4core4cell13Cell$LT$T$GT$4take17h99f022ba368d3b87E', symObjAddr: 0x27C, symBinAddr: 0x150C8, symSize: 0x3C }
  - { offset: 0x53335, size: 0x8, addend: 0x0, symName: __ZN4core4sync6atomic10AtomicBool3new17hb54fb69e46516b13E, symObjAddr: 0x2B8, symBinAddr: 0x15104, symSize: 0x18 }
  - { offset: 0x53365, size: 0x8, addend: 0x0, symName: __ZN4core4sync6atomic10AtomicBool4load17hf0c05b069f9aad7fE, symObjAddr: 0x2D0, symBinAddr: 0x1511C, symSize: 0x2C }
  - { offset: 0x53397, size: 0x8, addend: 0x0, symName: __ZN4core4sync6atomic10AtomicBool5store17hf70bae0ba24aa082E, symObjAddr: 0x2FC, symBinAddr: 0x15148, symSize: 0x28 }
  - { offset: 0x533E5, size: 0x8, addend: 0x0, symName: '__ZN4core4sync6atomic18AtomicPtr$LT$T$GT$16compare_exchange17hc744f61d7109f2a3E', symObjAddr: 0x610, symBinAddr: 0x1545C, symSize: 0x38 }
  - { offset: 0x5344D, size: 0x8, addend: 0x0, symName: '__ZN4core4sync6atomic18AtomicPtr$LT$T$GT$4load17h9a414547c94f4b6eE', symObjAddr: 0x648, symBinAddr: 0x15494, symSize: 0x24 }
  - { offset: 0x534BE, size: 0x8, addend: 0x0, symName: '__ZN4core4sync6atomic18AtomicPtr$LT$T$GT$4swap17hfd8c91620c88bc84E', symObjAddr: 0x66C, symBinAddr: 0x154B8, symSize: 0xD8 }
  - { offset: 0x53AA6, size: 0x8, addend: 0x0, symName: '__ZN4core3ptr9const_ptr33_$LT$impl$u20$$BP$const$u20$T$GT$13is_aligned_to17h7f85f9ad6df7ef57E', symObjAddr: 0x728, symBinAddr: 0x1647C, symSize: 0x88 }
  - { offset: 0x53E36, size: 0x8, addend: 0x0, symName: __ZN4core3fmt9Arguments3new17ha02f3da8b0fa5650E, symObjAddr: 0x594, symBinAddr: 0x16440, symSize: 0x1C }
  - { offset: 0x53E68, size: 0x8, addend: 0x0, symName: __ZN4core3fmt9Arguments8from_str17h9f17e396a0fc7f1bE, symObjAddr: 0x5B0, symBinAddr: 0x1645C, symSize: 0x20 }
  - { offset: 0x53E90, size: 0x8, addend: 0x0, symName: __ZN8pyo3_ffi32_cstr_from_utf8_with_nul_checked17h25957046e3f16ad2E, symObjAddr: 0xCC8, symBinAddr: 0x16504, symSize: 0x74 }
  - { offset: 0x53F19, size: 0x8, addend: 0x0, symName: __RNvCs5QKde7ScR4H_7___rustc10rust_panic, symObjAddr: 0x0, symBinAddr: 0x44F98, symSize: 0x48 }
  - { offset: 0x53F30, size: 0x8, addend: 0x0, symName: __RNvCs5QKde7ScR4H_7___rustc10rust_panic, symObjAddr: 0x0, symBinAddr: 0x44F98, symSize: 0x48 }
  - { offset: 0x53F4A, size: 0x8, addend: 0x0, symName: __RNvCs5QKde7ScR4H_7___rustc17___rust_drop_panic, symObjAddr: 0x174, symBinAddr: 0x16698, symSize: 0x118 }
  - { offset: 0x542C3, size: 0x8, addend: 0x0, symName: __RNvCs5QKde7ScR4H_7___rustc17rust_begin_unwind, symObjAddr: 0x28C, symBinAddr: 0x167B0, symSize: 0x20 }
  - { offset: 0x542F3, size: 0x8, addend: 0x0, symName: __RNvCs5QKde7ScR4H_7___rustc24___rust_foreign_exception, symObjAddr: 0x33C, symBinAddr: 0x16860, symSize: 0x118 }
  - { offset: 0x546D6, size: 0x8, addend: 0x0, symName: __ZN3std9panicking11panic_count17is_zero_slow_path17hc53babc33550cbb1E, symObjAddr: 0x223C8, symBinAddr: 0x45860, symSize: 0x2C }
  - { offset: 0x54782, size: 0x8, addend: 0x0, symName: __ZN3std9panicking11panic_count8increase17hd191ffbd1b06e653E, symObjAddr: 0x22458, symBinAddr: 0x203D8, symSize: 0x64 }
  - { offset: 0x54799, size: 0x8, addend: 0x0, symName: __ZN3std9panicking11panic_count8increase17hd191ffbd1b06e653E, symObjAddr: 0x22458, symBinAddr: 0x203D8, symSize: 0x64 }
  - { offset: 0x547AE, size: 0x8, addend: 0x0, symName: __ZN3std9panicking11panic_count8increase17hd191ffbd1b06e653E, symObjAddr: 0x22458, symBinAddr: 0x203D8, symSize: 0x64 }
  - { offset: 0x548C4, size: 0x8, addend: 0x0, symName: __ZN3std9panicking12catch_unwind7cleanup17h752c0163e5ec05a0E, symObjAddr: 0x224E0, symBinAddr: 0x4588C, symSize: 0x40 }
  - { offset: 0x549EA, size: 0x8, addend: 0x0, symName: '__ZN3std9panicking12default_hook28_$u7b$$u7b$closure$u7d$$u7d$17h1af7615be47c43abE', symObjAddr: 0x2265C, symBinAddr: 0x20578, symSize: 0x134 }
  - { offset: 0x54B1A, size: 0x8, addend: 0x0, symName: __ZN3std9panicking12default_hook17hdcc779fdbf67ae29E, symObjAddr: 0x22520, symBinAddr: 0x2043C, symSize: 0x13C }
  - { offset: 0x54CA3, size: 0x8, addend: 0x0, symName: '__ZN3std9panicking13panic_handler28_$u7b$$u7b$closure$u7d$$u7d$17h2068a0d88ec25e56E', symObjAddr: 0x22790, symBinAddr: 0x206AC, symSize: 0x9C }
  - { offset: 0x54E1B, size: 0x8, addend: 0x0, symName: '__ZN86_$LT$std..panicking..panic_handler..StaticStrPayload$u20$as$u20$core..fmt..Display$GT$3fmt17h29168cb33d563a1aE', symObjAddr: 0x4ABFC, symBinAddr: 0x33B58, symSize: 0x10 }
  - { offset: 0x54E3C, size: 0x8, addend: 0x0, symName: '__ZN89_$LT$std..panicking..panic_handler..FormatStringPayload$u20$as$u20$core..fmt..Display$GT$3fmt17h77f7538bf2d17d35E', symObjAddr: 0x4AF98, symBinAddr: 0x33B90, symSize: 0x34 }
  - { offset: 0x54F37, size: 0x8, addend: 0x0, symName: '__ZN93_$LT$std..panicking..panic_handler..StaticStrPayload$u20$as$u20$core..panic..PanicPayload$GT$3get17h568ef765b4ec1226E', symObjAddr: 0x4B5B4, symBinAddr: 0x33C2C, symSize: 0xC }
  - { offset: 0x54F52, size: 0x8, addend: 0x0, symName: '__ZN93_$LT$std..panicking..panic_handler..StaticStrPayload$u20$as$u20$core..panic..PanicPayload$GT$6as_str17hf5728612964ce613E', symObjAddr: 0x4B5C0, symBinAddr: 0x33C38, symSize: 0xC }
  - { offset: 0x54F6C, size: 0x8, addend: 0x0, symName: '__ZN93_$LT$std..panicking..panic_handler..StaticStrPayload$u20$as$u20$core..panic..PanicPayload$GT$8take_box17hbd5a9e5a88e9c9c2E', symObjAddr: 0x4B5CC, symBinAddr: 0x33C44, symSize: 0x48 }
  - { offset: 0x5502B, size: 0x8, addend: 0x0, symName: '__ZN96_$LT$std..panicking..panic_handler..FormatStringPayload$u20$as$u20$core..panic..PanicPayload$GT$3get17h8800fd25a29ed037E', symObjAddr: 0x4BD08, symBinAddr: 0x340A8, symSize: 0xA0 }
  - { offset: 0x55186, size: 0x8, addend: 0x0, symName: '__ZN96_$LT$std..panicking..panic_handler..FormatStringPayload$u20$as$u20$core..panic..PanicPayload$GT$8take_box17h8acddd4651f80559E', symObjAddr: 0x4BDA8, symBinAddr: 0x34148, symSize: 0x108 }
  - { offset: 0x5546F, size: 0x8, addend: 0x0, symName: __ZN3std9panicking13resume_unwind17he56a77b38696f38cE, symObjAddr: 0x2282C, symBinAddr: 0x458CC, symSize: 0xB8 }
  - { offset: 0x556DD, size: 0x8, addend: 0x0, symName: __ZN3std9panicking14payload_as_str17hb5a4fbc1324916adE, symObjAddr: 0x228E4, symBinAddr: 0x20748, symSize: 0xC8 }
  - { offset: 0x55821, size: 0x8, addend: 0x0, symName: __ZN3std9panicking15panic_with_hook17h455d3ea9bab4bcbdE, symObjAddr: 0x229AC, symBinAddr: 0x20810, symSize: 0x388 }
  - { offset: 0x55F5D, size: 0x8, addend: 0x0, symName: '__ZN79_$LT$std..panicking..resume_unwind..RewrapBox$u20$as$u20$core..fmt..Display$GT$3fmt17hfba99a384db1ee07E', symObjAddr: 0x49440, symBinAddr: 0x332EC, symSize: 0x14 }
  - { offset: 0x55F7E, size: 0x8, addend: 0x0, symName: '__ZN86_$LT$std..panicking..resume_unwind..RewrapBox$u20$as$u20$core..panic..PanicPayload$GT$3get17h57f3cb7a44c6d899E', symObjAddr: 0x4AC0C, symBinAddr: 0x33B68, symSize: 0xC }
  - { offset: 0x55F99, size: 0x8, addend: 0x0, symName: '__ZN86_$LT$std..panicking..resume_unwind..RewrapBox$u20$as$u20$core..panic..PanicPayload$GT$8take_box17h532bd54a1518e236E', symObjAddr: 0x4AC18, symBinAddr: 0x33B74, symSize: 0x1C }
  - { offset: 0x55FB7, size: 0x8, addend: 0x0, symName: '__ZN86_$LT$std..panicking..resume_unwind..RewrapBox$u20$as$u20$core..panic..PanicPayload$GT$8take_box17h532bd54a1518e236E', symObjAddr: 0x4AC18, symBinAddr: 0x33B74, symSize: 0x1C }
  - { offset: 0x56085, size: 0x8, addend: 0x0, symName: __ZN3std3sys2io5error4unix17decode_error_kind17h1242adb8c229e6d2E, symObjAddr: 0x13FC0, symBinAddr: 0x1E570, symSize: 0x150 }
  - { offset: 0x56135, size: 0x8, addend: 0x0, symName: __ZN3std3sys3pal4unix4sync5mutex5Mutex4init17h6076660a84b149e1E, symObjAddr: 0x16C88, symBinAddr: 0x1EA20, symSize: 0x168 }
  - { offset: 0x561CD, size: 0x8, addend: 0x0, symName: __ZN3std3sys3pal4unix4sync5mutex5Mutex4lock17hf11d9bf9473ab519E, symObjAddr: 0x16DF0, symBinAddr: 0x1EB88, symSize: 0x1C }
  - { offset: 0x561E1, size: 0x8, addend: 0x0, symName: __ZN3std3sys3pal4unix4sync5mutex5Mutex6unlock17h687ac4a6e6394e2dE, symObjAddr: 0x16EE0, symBinAddr: 0x1EBA4, symSize: 0x4 }
  - { offset: 0x5622C, size: 0x8, addend: 0x0, symName: __ZN3std3sys3pal4unix4sync5mutex5Mutex4lock4fail17h8e77330dbd0cf067E, symObjAddr: 0x16E0C, symBinAddr: 0x45004, symSize: 0xD4 }
  - { offset: 0x5651D, size: 0x8, addend: 0x0, symName: '__ZN81_$LT$std..sys..pal..unix..sync..mutex..Mutex$u20$as$u20$core..ops..drop..Drop$GT$4drop17h0d408a522165698cE', symObjAddr: 0x4A0EC, symBinAddr: 0x338A4, symSize: 0x4 }
  - { offset: 0x56552, size: 0x8, addend: 0x0, symName: __ZN3std3sys3pal4unix14abort_internal17h7e526aa44f596455E, symObjAddr: 0x155F0, symBinAddr: 0x44FF8, symSize: 0xC }
  - { offset: 0x565D0, size: 0x8, addend: 0x0, symName: '__ZN64_$LT$std..sys..stdio..unix..Stderr$u20$as$u20$std..io..Write$GT$14write_vectored17heb48fdb29153c9f0E', symObjAddr: 0x450B4, symBinAddr: 0x32920, symSize: 0x54 }
  - { offset: 0x566A4, size: 0x8, addend: 0x0, symName: '__ZN64_$LT$std..sys..stdio..unix..Stderr$u20$as$u20$std..io..Write$GT$17is_write_vectored17ha30bdc86dcf4c460E', symObjAddr: 0x45108, symBinAddr: 0x32974, symSize: 0x8 }
  - { offset: 0x566BE, size: 0x8, addend: 0x0, symName: '__ZN64_$LT$std..sys..stdio..unix..Stderr$u20$as$u20$std..io..Write$GT$5flush17hfa5e76720ade45a1E', symObjAddr: 0x45110, symBinAddr: 0x3297C, symSize: 0x8 }
  - { offset: 0x566D7, size: 0x8, addend: 0x0, symName: '__ZN64_$LT$std..sys..stdio..unix..Stderr$u20$as$u20$std..io..Write$GT$5write17h6ebf1446bf9e1975E', symObjAddr: 0x45118, symBinAddr: 0x32984, symSize: 0x54 }
  - { offset: 0x567ED, size: 0x8, addend: 0x0, symName: __ZN3std3sys12thread_local6native5eager7destroy17h36c3752fe1f4e0b6E, symObjAddr: 0xF50C, symBinAddr: 0x1E21C, symSize: 0x2C }
  - { offset: 0x56989, size: 0x8, addend: 0x0, symName: __ZN3std3sys12thread_local5guard5apple6enable9run_dtors17haca72ead1c130e17E, symObjAddr: 0xF41C, symBinAddr: 0x1E12C, symSize: 0xF0 }
  - { offset: 0x56E1B, size: 0x8, addend: 0x0, symName: __ZN3std3sys12thread_local11destructors4list8register17hfa31c57150524692E, symObjAddr: 0xF320, symBinAddr: 0x1E030, symSize: 0xFC }
  - { offset: 0x5711A, size: 0x8, addend: 0x0, symName: __ZN3std3sys3env4unix13env_read_lock17hd4ae47032b5c30f8E, symObjAddr: 0x14110, symBinAddr: 0x1E6C0, symSize: 0x230 }
  - { offset: 0x577E4, size: 0x8, addend: 0x0, symName: '__ZN3std3sys3env4unix6getenv28_$u7b$$u7b$closure$u7d$$u7d$17hf1079b0eaf7c71beE', symObjAddr: 0x14340, symBinAddr: 0x1E8F0, symSize: 0x130 }
  - { offset: 0x57A2C, size: 0x8, addend: 0x0, symName: __ZN3std3sys2fs4unix4File6open_c17h75f37d49044d3016E, symObjAddr: 0x12834, symBinAddr: 0x1E254, symSize: 0x1A0 }
  - { offset: 0x57B1A, size: 0x8, addend: 0x0, symName: '__ZN3std3sys2fs4unix4File4open28_$u7b$$u7b$closure$u7d$$u7d$17hdcff4e2a34019a05E', symObjAddr: 0x127D4, symBinAddr: 0x1E248, symSize: 0xC }
  - { offset: 0x57BB4, size: 0x8, addend: 0x0, symName: '__ZN71_$LT$std..sys..fs..unix..DirStream$u20$as$u20$core..ops..drop..Drop$GT$4drop17h6a875ba702f2c730E', symObjAddr: 0x466F8, symBinAddr: 0x32FA8, symSize: 0xB4 }
  - { offset: 0x57C7C, size: 0x8, addend: 0x0, symName: __ZN3std3sys2fs8read_dir17h43e51a1609ca9236E, symObjAddr: 0x13864, symBinAddr: 0x1E3F4, symSize: 0x17C }
  - { offset: 0x57FA8, size: 0x8, addend: 0x0, symName: __ZN3std3sys7helpers14small_c_string24run_with_cstr_allocating17h509c48cf23c25261E, symObjAddr: 0x18B54, symBinAddr: 0x4543C, symSize: 0xD0 }
  - { offset: 0x581C7, size: 0x8, addend: 0x0, symName: __ZN3std3sys7helpers14small_c_string24run_with_cstr_allocating17h8945d17fc8f7c02fE, symObjAddr: 0x18CE0, symBinAddr: 0x4550C, symSize: 0xB4 }
  - { offset: 0x583E6, size: 0x8, addend: 0x0, symName: __ZN3std3sys7helpers14small_c_string24run_with_cstr_allocating17hac5bd5af9d4402a9E, symObjAddr: 0x18F0C, symBinAddr: 0x455C0, symSize: 0xA4 }
  - { offset: 0x58663, size: 0x8, addend: 0x0, symName: '__ZN3std3sys4sync8once_box16OnceBox$LT$T$GT$10initialize17h9f3ca06c0415f9ffE', symObjAddr: 0x18194, symBinAddr: 0x45358, symSize: 0xE4 }
  - { offset: 0x58912, size: 0x8, addend: 0x0, symName: '__ZN79_$LT$std..sys..sync..mutex..pthread..Mutex$u20$as$u20$core..ops..drop..Drop$GT$4drop17hb184857b72f27b3dE', symObjAddr: 0x494A8, symBinAddr: 0x33300, symSize: 0x58 }
  - { offset: 0x58A62, size: 0x8, addend: 0x0, symName: __ZN3std3sys4sync4once5queue4Once4call17h90cdeb873fe878e4E, symObjAddr: 0x175A8, symBinAddr: 0x450D8, symSize: 0x200 }
  - { offset: 0x58D0E, size: 0x8, addend: 0x0, symName: '__ZN82_$LT$std..sys..sync..once..queue..WaiterQueue$u20$as$u20$core..ops..drop..Drop$GT$4drop17hdb6e532e07f86a70E', symObjAddr: 0x4A554, symBinAddr: 0x338A8, symSize: 0xDC }
  - { offset: 0x58EFD, size: 0x8, addend: 0x0, symName: __ZN3std3sys4sync4once5queue4wait17h2d025cd11154a2e8E, symObjAddr: 0x17974, symBinAddr: 0x1EBC8, symSize: 0x184 }
  - { offset: 0x59470, size: 0x8, addend: 0x0, symName: __ZN3std3sys4sync6rwlock5queue6RwLock12unlock_queue17hd1cbfe6db4460afaE, symObjAddr: 0x17B0C, symBinAddr: 0x1ED4C, symSize: 0x1BC }
  - { offset: 0x59ACB, size: 0x8, addend: 0x0, symName: __ZN3std3sys4sync6rwlock5queue6RwLock16unlock_contended17h7d2c7f9cf3e62932E, symObjAddr: 0x17FC4, symBinAddr: 0x452D8, symSize: 0x40 }
  - { offset: 0x59B92, size: 0x8, addend: 0x0, symName: __ZN3std3sys4sync6rwlock5queue6RwLock21read_unlock_contended17h1131540f0bb5eecaE, symObjAddr: 0x18004, symBinAddr: 0x45318, symSize: 0x40 }
  - { offset: 0x59BB0, size: 0x8, addend: 0x0, symName: __ZN3std3sys4sync6rwlock5queue6RwLock21read_unlock_contended17h1131540f0bb5eecaE, symObjAddr: 0x18004, symBinAddr: 0x45318, symSize: 0x40 }
  - { offset: 0x59BC5, size: 0x8, addend: 0x0, symName: __ZN3std3sys4sync6rwlock5queue6RwLock21read_unlock_contended17h1131540f0bb5eecaE, symObjAddr: 0x18004, symBinAddr: 0x45318, symSize: 0x40 }
  - { offset: 0x59DDF, size: 0x8, addend: 0x0, symName: '__ZN83_$LT$std..sys..sync..rwlock..queue..PanicGuard$u20$as$u20$core..ops..drop..Drop$GT$4drop17h2509f8616019adb9E', symObjAddr: 0x4A7D0, symBinAddr: 0x48CF8, symSize: 0x30 }
  - { offset: 0x59E18, size: 0x8, addend: 0x0, symName: __ZN3std3sys4sync14thread_parking6darwin6Parker6unpark17h07dd20202619ec82E, symObjAddr: 0x17588, symBinAddr: 0x1EBA8, symSize: 0x20 }
  - { offset: 0x59E2F, size: 0x8, addend: 0x0, symName: __ZN3std3sys4sync14thread_parking6darwin6Parker6unpark17h07dd20202619ec82E, symObjAddr: 0x17588, symBinAddr: 0x1EBA8, symSize: 0x20 }
  - { offset: 0x59E43, size: 0x8, addend: 0x0, symName: __ZN3std3sys4sync14thread_parking6darwin6Parker6unpark17h07dd20202619ec82E, symObjAddr: 0x17588, symBinAddr: 0x1EBA8, symSize: 0x20 }
  - { offset: 0x59EC4, size: 0x8, addend: 0x0, symName: '__ZN3std3sys11personality3gcc14find_eh_action28_$u7b$$u7b$closure$u7d$$u7d$17h26196c326510badeE', symObjAddr: 0xF1C0, symBinAddr: 0x1DED0, symSize: 0xC }
  - { offset: 0x59ED8, size: 0x8, addend: 0x0, symName: '__ZN3std3sys11personality3gcc14find_eh_action28_$u7b$$u7b$closure$u7d$$u7d$17h3beb1e892a771049E', symObjAddr: 0xF1CC, symBinAddr: 0x1DEDC, symSize: 0xC }
  - { offset: 0x59F20, size: 0x8, addend: 0x0, symName: _rust_eh_personality, symObjAddr: 0x4EA84, symBinAddr: 0x36B4C, symSize: 0x378 }
  - { offset: 0x5A335, size: 0x8, addend: 0x0, symName: __ZN3std3sys11personality5dwarf2eh19read_encoded_offset17hb44de3678dfcb9deE, symObjAddr: 0xF1D8, symBinAddr: 0x1DEE8, symSize: 0x148 }
  - { offset: 0x5A533, size: 0x8, addend: 0x0, symName: '__ZN3std3sys9backtrace10_print_fmt28_$u7b$$u7b$closure$u7d$$u7d$17h1f0621b5a53d5f85E', symObjAddr: 0x1B9E8, symBinAddr: 0x1EF08, symSize: 0x24 }
  - { offset: 0x5A55C, size: 0x8, addend: 0x0, symName: '__ZN3std3sys9backtrace10_print_fmt28_$u7b$$u7b$closure$u7d$$u7d$17hc37f85308239e555E', symObjAddr: 0x1BA0C, symBinAddr: 0x1EF2C, symSize: 0x134 }
  - { offset: 0x5A647, size: 0x8, addend: 0x0, symName: '__ZN3std3sys9backtrace10_print_fmt28_$u7b$$u7b$closure$u7d$$u7d$28_$u7b$$u7b$closure$u7d$$u7d$17h67e6c19f21a372ceE', symObjAddr: 0x1BB40, symBinAddr: 0x1F060, symSize: 0x244 }
  - { offset: 0x5A86C, size: 0x8, addend: 0x0, symName: __ZN3std3sys9backtrace15output_filename17h89ac4fad3e23b255E, symObjAddr: 0x1BD84, symBinAddr: 0x1F2A4, symSize: 0xE0 }
  - { offset: 0x5A9AC, size: 0x8, addend: 0x0, symName: __ZN3std3sys9backtrace26__rust_end_short_backtrace17h7bea34f9056001eeE, symObjAddr: 0x1BE70, symBinAddr: 0x1F384, symSize: 0xC }
  - { offset: 0x5A9C6, size: 0x8, addend: 0x0, symName: __ZN3std3sys9backtrace26__rust_end_short_backtrace17h8a1ed24f129fbc3cE, symObjAddr: 0x1BE7C, symBinAddr: 0x45664, symSize: 0xC }
  - { offset: 0x5A9DF, size: 0x8, addend: 0x0, symName: __ZN3std3sys9backtrace4lock17h03d74a540edc4f8fE, symObjAddr: 0x1BE88, symBinAddr: 0x1F390, symSize: 0x70 }
  - { offset: 0x5AB5C, size: 0x8, addend: 0x0, symName: '__ZN98_$LT$std..sys..backtrace..BacktraceLock..print..DisplayBacktrace$u20$as$u20$core..fmt..Display$GT$3fmt17hcde33371d8bba08bE', symObjAddr: 0x4C07C, symBinAddr: 0x34250, symSize: 0x210 }
  - { offset: 0x5B14F, size: 0x8, addend: 0x0, symName: __RNvCs5QKde7ScR4H_7___rustc11___rdl_alloc, symObjAddr: 0x48, symBinAddr: 0x16578, symSize: 0x6C }
  - { offset: 0x5B1CD, size: 0x8, addend: 0x0, symName: __RNvCs5QKde7ScR4H_7___rustc13___rdl_dealloc, symObjAddr: 0xC0, symBinAddr: 0x165E4, symSize: 0x4 }
  - { offset: 0x5B1EB, size: 0x8, addend: 0x0, symName: __RNvCs5QKde7ScR4H_7___rustc13___rdl_dealloc, symObjAddr: 0xC0, symBinAddr: 0x165E4, symSize: 0x4 }
  - { offset: 0x5B1FD, size: 0x8, addend: 0x0, symName: __RNvCs5QKde7ScR4H_7___rustc13___rdl_realloc, symObjAddr: 0xC4, symBinAddr: 0x165E8, symSize: 0xB0 }
  - { offset: 0x5B2D0, size: 0x8, addend: 0x0, symName: __RNvCs5QKde7ScR4H_7___rustc18___rdl_alloc_zeroed, symObjAddr: 0x2AC, symBinAddr: 0x167D0, symSize: 0x90 }
  - { offset: 0x5B374, size: 0x8, addend: 0x0, symName: __RNvCs5QKde7ScR4H_7___rustc26___rust_alloc_error_handler, symObjAddr: 0x454, symBinAddr: 0x44FE0, symSize: 0x18 }
  - { offset: 0x5B3B9, size: 0x8, addend: 0x0, symName: __ZN3std5alloc24default_alloc_error_hook17h9a182e317a6d74b3E, symObjAddr: 0x1FAAC, symBinAddr: 0x1FBB0, symSize: 0x108 }
  - { offset: 0x5B429, size: 0x8, addend: 0x0, symName: __ZN3std5alloc8rust_oom17h16d1fdb40ae7ee58E, symObjAddr: 0x1FBB4, symBinAddr: 0x45670, symSize: 0x18 }
  - { offset: 0x5B449, size: 0x8, addend: 0x0, symName: '__ZN3std5alloc8rust_oom28_$u7b$$u7b$closure$u7d$$u7d$17h417972e13eb2d7fdE', symObjAddr: 0x1FBCC, symBinAddr: 0x45688, symSize: 0x34 }
  - { offset: 0x5B509, size: 0x8, addend: 0x0, symName: __ZN3std2io5error5Error3new17h341eaf0fe1742dcbE, symObjAddr: 0x9AAC, symBinAddr: 0x1CF98, symSize: 0x110 }
  - { offset: 0x5B987, size: 0x8, addend: 0x0, symName: '__ZN3std2io5error83_$LT$impl$u20$core..fmt..Debug$u20$for$u20$std..io..error..repr_bitpacked..Repr$GT$3fmt17h93747d36033c46a0E', symObjAddr: 0x9CB0, symBinAddr: 0x1D0A8, symSize: 0x280 }
  - { offset: 0x5BC21, size: 0x8, addend: 0x0, symName: '__ZN58_$LT$std..io..error..Error$u20$as$u20$core..fmt..Debug$GT$3fmt17h5fb65499dcf44dccE', symObjAddr: 0x33F60, symBinAddr: 0x2ABCC, symSize: 0x4 }
  - { offset: 0x5BC3A, size: 0x8, addend: 0x0, symName: '__ZN60_$LT$std..io..error..Error$u20$as$u20$core..fmt..Display$GT$3fmt17ha78d75a637bbf1cbE', symObjAddr: 0x411AC, symBinAddr: 0x3229C, symSize: 0x1A8 }
  - { offset: 0x5BEB1, size: 0x8, addend: 0x0, symName: '__ZN62_$LT$std..io..error..ErrorKind$u20$as$u20$core..fmt..Debug$GT$3fmt17h571dc9b8c1218ec7E', symObjAddr: 0x43C18, symBinAddr: 0x32800, symSize: 0x28 }
  - { offset: 0x5BEEB, size: 0x8, addend: 0x0, symName: __ZN3std2io5Write18write_all_vectored17h48a271e9304484ffE, symObjAddr: 0x94D4, symBinAddr: 0x1CA20, symSize: 0x184 }
  - { offset: 0x5C0EF, size: 0x8, addend: 0x0, symName: __ZN3std2io5Write9write_all17hda6aef687a819ad9E, symObjAddr: 0x9658, symBinAddr: 0x1CBA4, symSize: 0xAC }
  - { offset: 0x5C1B1, size: 0x8, addend: 0x0, symName: __ZN3std2io5Write9write_fmt17h2fd0abc6933d662dE, symObjAddr: 0x9704, symBinAddr: 0x1CC50, symSize: 0x118 }
  - { offset: 0x5C489, size: 0x8, addend: 0x0, symName: __ZN3std2io5Write9write_fmt17h6cb699b8eb2cfe97E, symObjAddr: 0x981C, symBinAddr: 0x1CD68, symSize: 0x118 }
  - { offset: 0x5C768, size: 0x8, addend: 0x0, symName: __ZN3std2io5Write9write_fmt17hb9f59d39d99988fcE, symObjAddr: 0x9934, symBinAddr: 0x1CE80, symSize: 0x118 }
  - { offset: 0x5CA92, size: 0x8, addend: 0x0, symName: __ZN3std2io5stdio22try_set_output_capture17h5c607be6387df45bE, symObjAddr: 0xA440, symBinAddr: 0x1D734, symSize: 0xEC }
  - { offset: 0x5CD43, size: 0x8, addend: 0x0, symName: __ZN3std2io5stdio31print_to_buffer_if_capture_used17h199ca6a30200a367E, symObjAddr: 0xA608, symBinAddr: 0x1D820, symSize: 0x214 }
  - { offset: 0x5D4C8, size: 0x8, addend: 0x0, symName: __ZN3std2io5stdio6Stderr4lock17h21051cfacb1429daE, symObjAddr: 0xAA80, symBinAddr: 0x1DA34, symSize: 0xE4 }
  - { offset: 0x5D76F, size: 0x8, addend: 0x0, symName: __ZN3std2io5stdio7_eprint17he932b65433564ac5E, symObjAddr: 0xAC74, symBinAddr: 0x1DB18, symSize: 0xC0 }
  - { offset: 0x5D7B2, size: 0x8, addend: 0x0, symName: '__ZN61_$LT$$RF$std..io..stdio..Stderr$u20$as$u20$std..io..Write$GT$9write_fmt17h9e4c828e3b68f8a3E', symObjAddr: 0x42254, symBinAddr: 0x32444, symSize: 0x184 }
  - { offset: 0x5DC3B, size: 0x8, addend: 0x0, symName: '__ZN61_$LT$std..io..stdio..StderrLock$u20$as$u20$std..io..Write$GT$9write_all17h4a680c83359cc4daE', symObjAddr: 0x42B68, symBinAddr: 0x325C8, symSize: 0x104 }
  - { offset: 0x5DEF1, size: 0x8, addend: 0x0, symName: '__ZN3std2io5impls74_$LT$impl$u20$std..io..Write$u20$for$u20$alloc..vec..Vec$LT$u8$C$A$GT$$GT$14write_vectored17hcf8e9deba73a3a65E', symObjAddr: 0x9F30, symBinAddr: 0x1D328, symSize: 0x184 }
  - { offset: 0x5E140, size: 0x8, addend: 0x0, symName: '__ZN3std2io5impls74_$LT$impl$u20$std..io..Write$u20$for$u20$alloc..vec..Vec$LT$u8$C$A$GT$$GT$17is_write_vectored17hb3366cd68b776629E', symObjAddr: 0xA0B4, symBinAddr: 0x1D4AC, symSize: 0x8 }
  - { offset: 0x5E167, size: 0x8, addend: 0x0, symName: '__ZN3std2io5impls74_$LT$impl$u20$std..io..Write$u20$for$u20$alloc..vec..Vec$LT$u8$C$A$GT$$GT$18write_all_vectored17hab2a20d141de6caaE', symObjAddr: 0xA0BC, symBinAddr: 0x1D4B4, symSize: 0x174 }
  - { offset: 0x5E185, size: 0x8, addend: 0x0, symName: '__ZN3std2io5impls74_$LT$impl$u20$std..io..Write$u20$for$u20$alloc..vec..Vec$LT$u8$C$A$GT$$GT$18write_all_vectored17hab2a20d141de6caaE', symObjAddr: 0xA0BC, symBinAddr: 0x1D4B4, symSize: 0x174 }
  - { offset: 0x5E19A, size: 0x8, addend: 0x0, symName: '__ZN3std2io5impls74_$LT$impl$u20$std..io..Write$u20$for$u20$alloc..vec..Vec$LT$u8$C$A$GT$$GT$18write_all_vectored17hab2a20d141de6caaE', symObjAddr: 0xA0BC, symBinAddr: 0x1D4B4, symSize: 0x174 }
  - { offset: 0x5E1AF, size: 0x8, addend: 0x0, symName: '__ZN3std2io5impls74_$LT$impl$u20$std..io..Write$u20$for$u20$alloc..vec..Vec$LT$u8$C$A$GT$$GT$18write_all_vectored17hab2a20d141de6caaE', symObjAddr: 0xA0BC, symBinAddr: 0x1D4B4, symSize: 0x174 }
  - { offset: 0x5E1C4, size: 0x8, addend: 0x0, symName: '__ZN3std2io5impls74_$LT$impl$u20$std..io..Write$u20$for$u20$alloc..vec..Vec$LT$u8$C$A$GT$$GT$18write_all_vectored17hab2a20d141de6caaE', symObjAddr: 0xA0BC, symBinAddr: 0x1D4B4, symSize: 0x174 }
  - { offset: 0x5E1D8, size: 0x8, addend: 0x0, symName: '__ZN3std2io5impls74_$LT$impl$u20$std..io..Write$u20$for$u20$alloc..vec..Vec$LT$u8$C$A$GT$$GT$18write_all_vectored17hab2a20d141de6caaE', symObjAddr: 0xA0BC, symBinAddr: 0x1D4B4, symSize: 0x174 }
  - { offset: 0x5E40B, size: 0x8, addend: 0x0, symName: '__ZN3std2io5impls74_$LT$impl$u20$std..io..Write$u20$for$u20$alloc..vec..Vec$LT$u8$C$A$GT$$GT$5flush17h023578fd24d8e882E', symObjAddr: 0xA230, symBinAddr: 0x1D628, symSize: 0x8 }
  - { offset: 0x5E425, size: 0x8, addend: 0x0, symName: '__ZN3std2io5impls74_$LT$impl$u20$std..io..Write$u20$for$u20$alloc..vec..Vec$LT$u8$C$A$GT$$GT$5write17h4f2190924240fa52E', symObjAddr: 0xA238, symBinAddr: 0x1D630, symSize: 0x84 }
  - { offset: 0x5E569, size: 0x8, addend: 0x0, symName: '__ZN3std2io5impls74_$LT$impl$u20$std..io..Write$u20$for$u20$alloc..vec..Vec$LT$u8$C$A$GT$$GT$9write_all17h1873854fb2fc9c7cE', symObjAddr: 0xA2BC, symBinAddr: 0x1D6B4, symSize: 0x80 }
  - { offset: 0x5E7C8, size: 0x8, addend: 0x0, symName: '__ZN81_$LT$std..io..default_write_fmt..Adapter$LT$T$GT$$u20$as$u20$core..fmt..Write$GT$9write_str17h3a963f31b03b2ffaE', symObjAddr: 0x49A6C, symBinAddr: 0x3365C, symSize: 0x80 }
  - { offset: 0x5E913, size: 0x8, addend: 0x0, symName: '__ZN81_$LT$std..io..default_write_fmt..Adapter$LT$T$GT$$u20$as$u20$core..fmt..Write$GT$9write_str17h49117fbce3cacf2cE', symObjAddr: 0x49AEC, symBinAddr: 0x336DC, symSize: 0xD8 }
  - { offset: 0x5E9F8, size: 0x8, addend: 0x0, symName: '__ZN81_$LT$std..io..default_write_fmt..Adapter$LT$T$GT$$u20$as$u20$core..fmt..Write$GT$9write_str17h6ca3bce49463d649E', symObjAddr: 0x49BC4, symBinAddr: 0x337B4, symSize: 0xA0 }
  - { offset: 0x5EB22, size: 0x8, addend: 0x0, symName: '__ZN81_$LT$std..io..default_write_fmt..Adapter$LT$T$GT$$u20$as$u20$core..fmt..Write$GT$9write_str17hd69001acd09b0077E', symObjAddr: 0x49D8C, symBinAddr: 0x33854, symSize: 0x50 }
  - { offset: 0x5EB84, size: 0x8, addend: 0x0, symName: __ZN3std7process5abort17h356e677792aaa82eE, symObjAddr: 0x2161C, symBinAddr: 0x45854, symSize: 0xC }
  - { offset: 0x5EC52, size: 0x8, addend: 0x0, symName: __ZN3std4path4Path13_strip_prefix17he6c0dac5845936beE, symObjAddr: 0x1CCF4, symBinAddr: 0x1F798, symSize: 0x21C }
  - { offset: 0x5ED60, size: 0x8, addend: 0x0, symName: __ZN3std4path4Path5_join17h44575178964eb91bE, symObjAddr: 0x1D5D4, symBinAddr: 0x1F9B4, symSize: 0x184 }
  - { offset: 0x5F2C2, size: 0x8, addend: 0x0, symName: __ZN3std4path10Components25parse_next_component_back17h820dd9f8984cdd82E, symObjAddr: 0x1BEF8, symBinAddr: 0x1F400, symSize: 0x160 }
  - { offset: 0x5F418, size: 0x8, addend: 0x0, symName: __ZN3std4path10Components7as_path17he74005186aef2d8fE, symObjAddr: 0x1C058, symBinAddr: 0x1F560, symSize: 0x238 }
  - { offset: 0x5F60F, size: 0x8, addend: 0x0, symName: '__ZN61_$LT$std..path..Component$u20$as$u20$core..cmp..PartialEq$GT$2eq17hf43800806b87a6dcE', symObjAddr: 0x43448, symBinAddr: 0x326CC, symSize: 0x134 }
  - { offset: 0x5F768, size: 0x8, addend: 0x0, symName: '__ZN80_$LT$std..path..Components$u20$as$u20$core..iter..traits..iterator..Iterator$GT$4next17hbcfca30053db8263E', symObjAddr: 0x49500, symBinAddr: 0x33358, symSize: 0x304 }
  - { offset: 0x5F867, size: 0x8, addend: 0x0, symName: '__ZN95_$LT$std..path..Components$u20$as$u20$core..iter..traits..double_ended..DoubleEndedIterator$GT$9next_back17h6c3cc2590cbbcd71E', symObjAddr: 0x4B8B0, symBinAddr: 0x33C8C, symSize: 0x41C }
  - { offset: 0x5F9C6, size: 0x8, addend: 0x0, symName: '__ZN126_$LT$std..thread..thread..thread_name_string..ThreadNameString$u20$as$u20$core..convert..From$LT$alloc..string..String$GT$$GT$4from17h5e636d9fac3a2e7cE', symObjAddr: 0xB28, symBinAddr: 0x16978, symSize: 0x128 }
  - { offset: 0x5FC32, size: 0x8, addend: 0x0, symName: __ZN3std6thread6thread6Thread3new17hcd84da917c050e20E, symObjAddr: 0x1FEE8, symBinAddr: 0x1FDD4, symSize: 0x18C }
  - { offset: 0x60045, size: 0x8, addend: 0x0, symName: __ZN3std6thread5local18panic_access_error17ha141f03af8fa9523E, symObjAddr: 0x1FD9C, symBinAddr: 0x456E8, symSize: 0x30 }
  - { offset: 0x60065, size: 0x8, addend: 0x0, symName: '__ZN68_$LT$std..thread..local..AccessError$u20$as$u20$core..fmt..Debug$GT$3fmt17h6a4d57c12dd29b08E', symObjAddr: 0x45DE0, symBinAddr: 0x329D8, symSize: 0x38 }
  - { offset: 0x6009E, size: 0x8, addend: 0x0, symName: __ZN3std6thread9functions4park17h10b0d1a105a89f2dE, symObjAddr: 0x209B0, symBinAddr: 0x20310, symSize: 0xC8 }
  - { offset: 0x602D2, size: 0x8, addend: 0x0, symName: '__ZN76_$LT$std..thread..functions..PanicGuard$u20$as$u20$core..ops..drop..Drop$GT$4drop17h5861351d3795efc5E', symObjAddr: 0x47ED0, symBinAddr: 0x48CC8, symSize: 0x30 }
  - { offset: 0x603CC, size: 0x8, addend: 0x0, symName: '__ZN3std6thread7current17with_current_name28_$u7b$$u7b$closure$u7d$$u7d$17h62776a1255d052e2E', symObjAddr: 0x202C4, symBinAddr: 0x1FF60, symSize: 0x368 }
  - { offset: 0x60BF6, size: 0x8, addend: 0x0, symName: __ZN3std6thread7current12init_current17ha92fdd47b5360b8bE, symObjAddr: 0x20188, symBinAddr: 0x45718, symSize: 0x13C }
  - { offset: 0x60EC7, size: 0x8, addend: 0x0, symName: __ZN3std6thread7current7current17hdf38cc5826cd64c8E, symObjAddr: 0x206E8, symBinAddr: 0x202C8, symSize: 0x48 }
  - { offset: 0x60FF9, size: 0x8, addend: 0x0, symName: __ZN3std6thread2id8ThreadId3new9exhausted17h5bd4e83d32c0c452E, symObjAddr: 0x1FD7C, symBinAddr: 0x456C8, symSize: 0x20 }
  - { offset: 0x61051, size: 0x8, addend: 0x0, symName: __ZN3std12backtrace_rs5print17BacktraceFrameFmt21print_raw_with_column17hbdaeb8e58ae70d92E, symObjAddr: 0xCD0, symBinAddr: 0x16ADC, symSize: 0x378 }
  - { offset: 0x6131F, size: 0x8, addend: 0x0, symName: __ZN3std12backtrace_rs9backtrace9libunwind5trace8trace_fn17hd3b93af9109e0040E, symObjAddr: 0x1048, symBinAddr: 0x16E54, symSize: 0x48 }
  - { offset: 0x613D5, size: 0x8, addend: 0x0, symName: __ZN3std12backtrace_rs9symbolize5gimli4mmap17h94ef6f388d4f1a02E, symObjAddr: 0x1090, symBinAddr: 0x16E9C, symSize: 0x1FC }
  - { offset: 0x6198B, size: 0x8, addend: 0x0, symName: __ZN3std12backtrace_rs9symbolize5gimli5macho11find_header17h10129ed1adcf63dbE, symObjAddr: 0x128C, symBinAddr: 0x17098, symSize: 0x1E4 }
  - { offset: 0x619A8, size: 0x8, addend: 0x0, symName: __ZN3std12backtrace_rs9symbolize5gimli5macho11find_header17h10129ed1adcf63dbE, symObjAddr: 0x128C, symBinAddr: 0x17098, symSize: 0x1E4 }
  - { offset: 0x619BC, size: 0x8, addend: 0x0, symName: __ZN3std12backtrace_rs9symbolize5gimli5macho11find_header17h10129ed1adcf63dbE, symObjAddr: 0x128C, symBinAddr: 0x17098, symSize: 0x1E4 }
  - { offset: 0x619D0, size: 0x8, addend: 0x0, symName: __ZN3std12backtrace_rs9symbolize5gimli5macho11find_header17h10129ed1adcf63dbE, symObjAddr: 0x128C, symBinAddr: 0x17098, symSize: 0x1E4 }
  - { offset: 0x619E4, size: 0x8, addend: 0x0, symName: __ZN3std12backtrace_rs9symbolize5gimli5macho11find_header17h10129ed1adcf63dbE, symObjAddr: 0x128C, symBinAddr: 0x17098, symSize: 0x1E4 }
  - { offset: 0x619F9, size: 0x8, addend: 0x0, symName: __ZN3std12backtrace_rs9symbolize5gimli5macho11find_header17h10129ed1adcf63dbE, symObjAddr: 0x128C, symBinAddr: 0x17098, symSize: 0x1E4 }
  - { offset: 0x61A0E, size: 0x8, addend: 0x0, symName: __ZN3std12backtrace_rs9symbolize5gimli5macho11find_header17h10129ed1adcf63dbE, symObjAddr: 0x128C, symBinAddr: 0x17098, symSize: 0x1E4 }
  - { offset: 0x6210C, size: 0x8, addend: 0x0, symName: __ZN3std12backtrace_rs9symbolize5gimli5macho6Object5parse17he3bcf04599ad628dE, symObjAddr: 0x1470, symBinAddr: 0x1727C, symSize: 0xC9C }
  - { offset: 0x64025, size: 0x8, addend: 0x0, symName: __ZN3std12backtrace_rs9symbolize5gimli5macho6Object7section17hf33b0ac23b7158f7E, symObjAddr: 0x210C, symBinAddr: 0x17F18, symSize: 0x154 }
  - { offset: 0x64407, size: 0x8, addend: 0x0, symName: __ZN3std12backtrace_rs9symbolize5gimli7Context11find_frames17h771c3d5892c8a8edE, symObjAddr: 0x2260, symBinAddr: 0x1806C, symSize: 0x398 }
  - { offset: 0x64838, size: 0x8, addend: 0x0, symName: __ZN3std12backtrace_rs9symbolize5gimli7Context3new17h622bc4cbf1e80765E, symObjAddr: 0x25F8, symBinAddr: 0x18404, symSize: 0x1EDC }
  - { offset: 0x68CFF, size: 0x8, addend: 0x0, symName: __ZN3std12backtrace_rs9symbolize5gimli7resolve17h7bad3477dbd5ab0eE, symObjAddr: 0x44D4, symBinAddr: 0x1A2E0, symSize: 0x266C }
  - { offset: 0x6EB69, size: 0x8, addend: 0x0, symName: __ZN3std12backtrace_rs9symbolize6Symbol4name17heb933bb5f95f7f9eE, symObjAddr: 0x6B78, symBinAddr: 0x1C94C, symSize: 0xD4 }
  - { offset: 0x6ECD1, size: 0x8, addend: 0x0, symName: '__ZN79_$LT$std..backtrace_rs..symbolize..SymbolName$u20$as$u20$core..fmt..Display$GT$3fmt17ha1cfd259ccd5081fE', symObjAddr: 0x48CF8, symBinAddr: 0x331E8, symSize: 0x104 }
  - { offset: 0x6EE10, size: 0x8, addend: 0x0, symName: '__ZN75_$LT$std..fs..ReadDir$u20$as$u20$core..iter..traits..iterator..Iterator$GT$4next17hc076ff689a5d953dE', symObjAddr: 0x476E4, symBinAddr: 0x3305C, symSize: 0x18C }
  - { offset: 0x6F209, size: 0x8, addend: 0x0, symName: '__ZN64_$LT$std..ffi..os_str..Display$u20$as$u20$core..fmt..Display$GT$3fmt17h51d66dc022a65b98E', symObjAddr: 0x44D9C, symBinAddr: 0x32874, symSize: 0xAC }
  - { offset: 0x6F28B, size: 0x8, addend: 0x0, symName: '__ZN3std4sync6poison5mutex14Mutex$LT$T$GT$4lock17h95b64927eb0c74cfE', symObjAddr: 0x1F060, symBinAddr: 0x1FB38, symSize: 0x78 }
  - { offset: 0x6F56E, size: 0x8, addend: 0x0, symName: __ZN3std5panic13resume_unwind17h1dc586ddfdb3e7f7E, symObjAddr: 0x1FC00, symBinAddr: 0x456BC, symSize: 0xC }
  - { offset: 0x6F59B, size: 0x8, addend: 0x0, symName: __ZN3std5panic19get_backtrace_style17h62b53c396a4f30bdE, symObjAddr: 0x1FC0C, symBinAddr: 0x1FCB8, symSize: 0x11C }
  - { offset: 0x6F5B9, size: 0x8, addend: 0x0, symName: __ZN3std5panic19get_backtrace_style17h62b53c396a4f30bdE, symObjAddr: 0x1FC0C, symBinAddr: 0x1FCB8, symSize: 0x11C }
  - { offset: 0x6F5CE, size: 0x8, addend: 0x0, symName: __ZN3std5panic19get_backtrace_style17h62b53c396a4f30bdE, symObjAddr: 0x1FC0C, symBinAddr: 0x1FCB8, symSize: 0x11C }
  - { offset: 0x6FB10, size: 0x8, addend: 0x0, symName: __ZN3std3env11current_dir17ha7be4ecd1271f71fE, symObjAddr: 0xCA7C, symBinAddr: 0x1DBD8, symSize: 0x18C }
  - { offset: 0x6FF82, size: 0x8, addend: 0x0, symName: __ZN3std3env7_var_os17hb51c74bab3da1b8fE, symObjAddr: 0xCD74, symBinAddr: 0x1DD64, symSize: 0x16C }
  - { offset: 0x71D54, size: 0x8, addend: 0x0, symName: '__ZN4core3ptr107drop_in_place$LT$core..pin..Pin$LT$alloc..boxed..Box$LT$std..sys..pal..unix..sync..mutex..Mutex$GT$$GT$$GT$17h2df49b87d3e08e82E', symObjAddr: 0x24C8C, symBinAddr: 0x212F8, symSize: 0x2C }
  - { offset: 0x71E16, size: 0x8, addend: 0x0, symName: '__ZN4core3ptr109drop_in_place$LT$alloc..sync..Arc$LT$std..sync..poison..mutex..Mutex$LT$alloc..vec..Vec$LT$u8$GT$$GT$$GT$$GT$17h1a27d77d497c2e4cE', symObjAddr: 0x24CB8, symBinAddr: 0x21324, symSize: 0x20 }
  - { offset: 0x71E2D, size: 0x8, addend: 0x0, symName: '__ZN4core3ptr109drop_in_place$LT$alloc..sync..Arc$LT$std..sync..poison..mutex..Mutex$LT$alloc..vec..Vec$LT$u8$GT$$GT$$GT$$GT$17h1a27d77d497c2e4cE', symObjAddr: 0x24CB8, symBinAddr: 0x21324, symSize: 0x20 }
  - { offset: 0x71E42, size: 0x8, addend: 0x0, symName: '__ZN4core3ptr109drop_in_place$LT$alloc..sync..Arc$LT$std..sync..poison..mutex..Mutex$LT$alloc..vec..Vec$LT$u8$GT$$GT$$GT$$GT$17h1a27d77d497c2e4cE', symObjAddr: 0x24CB8, symBinAddr: 0x21324, symSize: 0x20 }
  - { offset: 0x71E57, size: 0x8, addend: 0x0, symName: '__ZN4core3ptr109drop_in_place$LT$alloc..sync..Arc$LT$std..sync..poison..mutex..Mutex$LT$alloc..vec..Vec$LT$u8$GT$$GT$$GT$$GT$17h1a27d77d497c2e4cE', symObjAddr: 0x24CB8, symBinAddr: 0x21324, symSize: 0x20 }
  - { offset: 0x71EAB, size: 0x8, addend: 0x0, symName: '__ZN4core3ptr119drop_in_place$LT$std..io..default_write_fmt..Adapter$LT$std..io..cursor..Cursor$LT$$RF$mut$u20$$u5b$u8$u5d$$GT$$GT$$GT$17h5d84935f2dab4fa4E', symObjAddr: 0x24D54, symBinAddr: 0x21344, symSize: 0x10 }
  - { offset: 0x71EC2, size: 0x8, addend: 0x0, symName: '__ZN4core3ptr119drop_in_place$LT$std..io..default_write_fmt..Adapter$LT$std..io..cursor..Cursor$LT$$RF$mut$u20$$u5b$u8$u5d$$GT$$GT$$GT$17h5d84935f2dab4fa4E', symObjAddr: 0x24D54, symBinAddr: 0x21344, symSize: 0x10 }
  - { offset: 0x71ED4, size: 0x8, addend: 0x0, symName: '__ZN4core3ptr123drop_in_place$LT$addr2line..Context$LT$gimli..read..endian_slice..EndianSlice$LT$gimli..endianity..LittleEndian$GT$$GT$$GT$17hf39a22d4deac0acfE', symObjAddr: 0x24D64, symBinAddr: 0x21354, symSize: 0x70 }
  - { offset: 0x71FD9, size: 0x8, addend: 0x0, symName: '__ZN4core3ptr129drop_in_place$LT$addr2line..unit..ResUnit$LT$gimli..read..endian_slice..EndianSlice$LT$gimli..endianity..LittleEndian$GT$$GT$$GT$17h8f5e828f1982fd36E', symObjAddr: 0x24F1C, symBinAddr: 0x213C4, symSize: 0xE4 }
  - { offset: 0x721F6, size: 0x8, addend: 0x0, symName: '__ZN4core3ptr129drop_in_place$LT$addr2line..unit..SupUnit$LT$gimli..read..endian_slice..EndianSlice$LT$gimli..endianity..LittleEndian$GT$$GT$$GT$17h500d1bfb3690b988E', symObjAddr: 0x25000, symBinAddr: 0x214A8, symSize: 0x54 }
  - { offset: 0x722B3, size: 0x8, addend: 0x0, symName: '__ZN4core3ptr130drop_in_place$LT$addr2line..unit..ResUnits$LT$gimli..read..endian_slice..EndianSlice$LT$gimli..endianity..LittleEndian$GT$$GT$$GT$17h8a1c47b37cff57e6E', symObjAddr: 0x25054, symBinAddr: 0x214FC, symSize: 0xD0 }
  - { offset: 0x724D8, size: 0x8, addend: 0x0, symName: '__ZN4core3ptr130drop_in_place$LT$addr2line..unit..SupUnits$LT$gimli..read..endian_slice..EndianSlice$LT$gimli..endianity..LittleEndian$GT$$GT$$GT$17hfeb69d9bfa4a9266E', symObjAddr: 0x25124, symBinAddr: 0x215CC, symSize: 0xE4 }
  - { offset: 0x726DD, size: 0x8, addend: 0x0, symName: '__ZN4core3ptr130drop_in_place$LT$gimli..read..dwarf..Dwarf$LT$gimli..read..endian_slice..EndianSlice$LT$gimli..endianity..LittleEndian$GT$$GT$$GT$17h7c37341b5293d04eE', symObjAddr: 0x25208, symBinAddr: 0x216B0, symSize: 0x58 }
  - { offset: 0x72772, size: 0x8, addend: 0x0, symName: '__ZN4core3ptr131drop_in_place$LT$$u5b$core..option..Option$LT$core..option..Option$LT$std..backtrace_rs..symbolize..gimli..Mapping$GT$$GT$$u5d$$GT$17hd87b4441aab0cc00E', symObjAddr: 0x25260, symBinAddr: 0x21708, symSize: 0xCC }
  - { offset: 0x7281B, size: 0x8, addend: 0x0, symName: '__ZN4core3ptr137drop_in_place$LT$gimli..read..dwarf..Unit$LT$gimli..read..endian_slice..EndianSlice$LT$gimli..endianity..LittleEndian$GT$$C$usize$GT$$GT$17hf44d2a6966a873f6E', symObjAddr: 0x2532C, symBinAddr: 0x217D4, symSize: 0x54 }
  - { offset: 0x72910, size: 0x8, addend: 0x0, symName: '__ZN4core3ptr138drop_in_place$LT$addr2line..function..LazyFunction$LT$gimli..read..endian_slice..EndianSlice$LT$gimli..endianity..LittleEndian$GT$$GT$$GT$17ha4d59f5b4eba1420E', symObjAddr: 0x25380, symBinAddr: 0x21828, symSize: 0x64 }
  - { offset: 0x72927, size: 0x8, addend: 0x0, symName: '__ZN4core3ptr138drop_in_place$LT$addr2line..function..LazyFunction$LT$gimli..read..endian_slice..EndianSlice$LT$gimli..endianity..LittleEndian$GT$$GT$$GT$17ha4d59f5b4eba1420E', symObjAddr: 0x25380, symBinAddr: 0x21828, symSize: 0x64 }
  - { offset: 0x7293C, size: 0x8, addend: 0x0, symName: '__ZN4core3ptr138drop_in_place$LT$addr2line..function..LazyFunction$LT$gimli..read..endian_slice..EndianSlice$LT$gimli..endianity..LittleEndian$GT$$GT$$GT$17ha4d59f5b4eba1420E', symObjAddr: 0x25380, symBinAddr: 0x21828, symSize: 0x64 }
  - { offset: 0x72951, size: 0x8, addend: 0x0, symName: '__ZN4core3ptr138drop_in_place$LT$addr2line..function..LazyFunction$LT$gimli..read..endian_slice..EndianSlice$LT$gimli..endianity..LittleEndian$GT$$GT$$GT$17ha4d59f5b4eba1420E', symObjAddr: 0x25380, symBinAddr: 0x21828, symSize: 0x64 }
  - { offset: 0x72ADA, size: 0x8, addend: 0x0, symName: '__ZN4core3ptr144drop_in_place$LT$alloc..vec..Vec$LT$core..option..Option$LT$core..option..Option$LT$std..backtrace_rs..symbolize..gimli..Mapping$GT$$GT$$GT$$GT$17he4b9c6024a582bf2E', symObjAddr: 0x253E4, symBinAddr: 0x2188C, symSize: 0x78 }
  - { offset: 0x72C89, size: 0x8, addend: 0x0, symName: '__ZN4core3ptr152drop_in_place$LT$alloc..vec..Vec$LT$addr2line..unit..ResUnit$LT$gimli..read..endian_slice..EndianSlice$LT$gimli..endianity..LittleEndian$GT$$GT$$GT$$GT$17h18a8b266d2222173E', symObjAddr: 0x25518, symBinAddr: 0x21904, symSize: 0xC4 }
  - { offset: 0x72E4B, size: 0x8, addend: 0x0, symName: '__ZN4core3ptr152drop_in_place$LT$alloc..vec..Vec$LT$addr2line..unit..SupUnit$LT$gimli..read..endian_slice..EndianSlice$LT$gimli..endianity..LittleEndian$GT$$GT$$GT$$GT$17haa029dd48deb3ebaE', symObjAddr: 0x255DC, symBinAddr: 0x219C8, symSize: 0xF4 }
  - { offset: 0x730B8, size: 0x8, addend: 0x0, symName: '__ZN4core3ptr152drop_in_place$LT$core..result..Result$LT$$RF$std..thread..thread..Thread$C$$LP$$RF$std..thread..thread..Thread$C$std..thread..thread..Thread$RP$$GT$$GT$17h18759a1374e55b00E', symObjAddr: 0x256D0, symBinAddr: 0x21ABC, symSize: 0x28 }
  - { offset: 0x731AB, size: 0x8, addend: 0x0, symName: '__ZN4core3ptr154drop_in_place$LT$alloc..boxed..Box$LT$dyn$u20$core..ops..function..FnOnce$LT$$LP$$RP$$GT$$u2b$Output$u20$$u3d$$u20$$LP$$RP$$u2b$core..marker..Send$GT$$GT$17hdc8c3818156ac0e9E', symObjAddr: 0x256F8, symBinAddr: 0x21AE4, symSize: 0x78 }
  - { offset: 0x732F8, size: 0x8, addend: 0x0, symName: '__ZN4core3ptr156drop_in_place$LT$alloc..boxed..Box$LT$$u5b$core..option..Option$LT$core..option..Option$LT$std..backtrace_rs..symbolize..gimli..Mapping$GT$$GT$$u5d$$GT$$GT$17hb6c3b22c784a7231E', symObjAddr: 0x25770, symBinAddr: 0x21B5C, symSize: 0xF8 }
  - { offset: 0x73475, size: 0x8, addend: 0x0, symName: '__ZN4core3ptr159drop_in_place$LT$alloc..sync..ArcInner$LT$gimli..read..dwarf..Dwarf$LT$gimli..read..endian_slice..EndianSlice$LT$gimli..endianity..LittleEndian$GT$$GT$$GT$$GT$17hc766f40eab1f7b4fE', symObjAddr: 0x258E4, symBinAddr: 0x21C54, symSize: 0x5C }
  - { offset: 0x73536, size: 0x8, addend: 0x0, symName: '__ZN4core3ptr161drop_in_place$LT$alloc..vec..Vec$LT$addr2line..function..LazyFunction$LT$gimli..read..endian_slice..EndianSlice$LT$gimli..endianity..LittleEndian$GT$$GT$$GT$$GT$17h505e9c807ceae37bE', symObjAddr: 0x25940, symBinAddr: 0x21CB0, symSize: 0xAC }
  - { offset: 0x737F2, size: 0x8, addend: 0x0, symName: '__ZN4core3ptr173drop_in_place$LT$alloc..boxed..Box$LT$$u5b$addr2line..function..LazyFunction$LT$gimli..read..endian_slice..EndianSlice$LT$gimli..endianity..LittleEndian$GT$$GT$$u5d$$GT$$GT$17h29a7edcd8288108bE', symObjAddr: 0x25A98, symBinAddr: 0x21D5C, symSize: 0x9C }
  - { offset: 0x73809, size: 0x8, addend: 0x0, symName: '__ZN4core3ptr173drop_in_place$LT$alloc..boxed..Box$LT$$u5b$addr2line..function..LazyFunction$LT$gimli..read..endian_slice..EndianSlice$LT$gimli..endianity..LittleEndian$GT$$GT$$u5d$$GT$$GT$17h29a7edcd8288108bE', symObjAddr: 0x25A98, symBinAddr: 0x21D5C, symSize: 0x9C }
  - { offset: 0x73A5E, size: 0x8, addend: 0x0, symName: '__ZN4core3ptr181drop_in_place$LT$core..option..Option$LT$gimli..read..line..IncompleteLineProgram$LT$gimli..read..endian_slice..EndianSlice$LT$gimli..endianity..LittleEndian$GT$$C$usize$GT$$GT$$GT$17h3df05a09ff9eb616E', symObjAddr: 0x25BA4, symBinAddr: 0x21DF8, symSize: 0x98 }
  - { offset: 0x73D63, size: 0x8, addend: 0x0, symName: '__ZN4core3ptr181drop_in_place$LT$core..result..Result$LT$addr2line..frame..FrameIter$LT$gimli..read..endian_slice..EndianSlice$LT$gimli..endianity..LittleEndian$GT$$GT$$C$gimli..read..Error$GT$$GT$17h0baa502b63bc3f2fE', symObjAddr: 0x25C3C, symBinAddr: 0x21E90, symSize: 0x34 }
  - { offset: 0x73EC8, size: 0x8, addend: 0x0, symName: '__ZN4core3ptr184drop_in_place$LT$core..result..Result$LT$addr2line..function..Functions$LT$gimli..read..endian_slice..EndianSlice$LT$gimli..endianity..LittleEndian$GT$$GT$$C$gimli..read..Error$GT$$GT$17h233998975e718504E', symObjAddr: 0x25C70, symBinAddr: 0x21EC4, symSize: 0xD8 }
  - { offset: 0x7422A, size: 0x8, addend: 0x0, symName: '__ZN4core3ptr231drop_in_place$LT$core..result..Result$LT$core..option..Option$LT$alloc..boxed..Box$LT$addr2line..unit..DwoUnit$LT$gimli..read..endian_slice..EndianSlice$LT$gimli..endianity..LittleEndian$GT$$GT$$GT$$GT$$C$gimli..read..Error$GT$$GT$17h488d06a2dc977f62E', symObjAddr: 0x25E08, symBinAddr: 0x21F9C, symSize: 0xD4 }
  - { offset: 0x7444B, size: 0x8, addend: 0x0, symName: '__ZN4core3ptr238drop_in_place$LT$alloc..boxed..convert..$LT$impl$u20$core..convert..From$LT$alloc..string..String$GT$$u20$for$u20$alloc..boxed..Box$LT$dyn$u20$core..error..Error$u2b$core..marker..Sync$u2b$core..marker..Send$GT$$GT$..from..StringError$GT$17hab70380e782b1eceE', symObjAddr: 0x25EDC, symBinAddr: 0x22070, symSize: 0x18 }
  - { offset: 0x74462, size: 0x8, addend: 0x0, symName: '__ZN4core3ptr238drop_in_place$LT$alloc..boxed..convert..$LT$impl$u20$core..convert..From$LT$alloc..string..String$GT$$u20$for$u20$alloc..boxed..Box$LT$dyn$u20$core..error..Error$u2b$core..marker..Sync$u2b$core..marker..Send$GT$$GT$..from..StringError$GT$17hab70380e782b1eceE', symObjAddr: 0x25EDC, symBinAddr: 0x22070, symSize: 0x18 }
  - { offset: 0x74477, size: 0x8, addend: 0x0, symName: '__ZN4core3ptr238drop_in_place$LT$alloc..boxed..convert..$LT$impl$u20$core..convert..From$LT$alloc..string..String$GT$$u20$for$u20$alloc..boxed..Box$LT$dyn$u20$core..error..Error$u2b$core..marker..Sync$u2b$core..marker..Send$GT$$GT$..from..StringError$GT$17hab70380e782b1eceE', symObjAddr: 0x25EDC, symBinAddr: 0x22070, symSize: 0x18 }
  - { offset: 0x74520, size: 0x8, addend: 0x0, symName: '__ZN4core3ptr275drop_in_place$LT$gimli..read..line..LineRows$LT$gimli..read..endian_slice..EndianSlice$LT$gimli..endianity..LittleEndian$GT$$C$gimli..read..line..IncompleteLineProgram$LT$gimli..read..endian_slice..EndianSlice$LT$gimli..endianity..LittleEndian$GT$$C$usize$GT$$C$usize$GT$$GT$17h0131afaeb5f79ec2E', symObjAddr: 0x25F38, symBinAddr: 0x22088, symSize: 0x8C }
  - { offset: 0x7483E, size: 0x8, addend: 0x0, symName: '__ZN4core3ptr280drop_in_place$LT$$LT$alloc..collections..btree..map..IntoIter$LT$K$C$V$C$A$GT$$u20$as$u20$core..ops..drop..Drop$GT$..drop..DropGuard$LT$u64$C$core..result..Result$LT$alloc..sync..Arc$LT$gimli..read..abbrev..Abbreviations$GT$$C$gimli..read..Error$GT$$C$alloc..alloc..Global$GT$$GT$17h886aec1819de5f5cE', symObjAddr: 0x25FC4, symBinAddr: 0x22114, symSize: 0x84 }
  - { offset: 0x749AD, size: 0x8, addend: 0x0, symName: '__ZN4core3ptr284drop_in_place$LT$core..result..Result$LT$$RF$core..result..Result$LT$addr2line..line..Lines$C$gimli..read..Error$GT$$C$$LP$$RF$core..result..Result$LT$addr2line..line..Lines$C$gimli..read..Error$GT$$C$core..result..Result$LT$addr2line..line..Lines$C$gimli..read..Error$GT$$RP$$GT$$GT$17he331a935851f963bE', symObjAddr: 0x26048, symBinAddr: 0x22198, symSize: 0x10 }
  - { offset: 0x749DE, size: 0x8, addend: 0x0, symName: '__ZN4core3ptr42drop_in_place$LT$alloc..string..String$GT$17h38ea6ff68a2f6dd3E', symObjAddr: 0x261EC, symBinAddr: 0x221A8, symSize: 0x18 }
  - { offset: 0x749F5, size: 0x8, addend: 0x0, symName: '__ZN4core3ptr42drop_in_place$LT$alloc..string..String$GT$17h38ea6ff68a2f6dd3E', symObjAddr: 0x261EC, symBinAddr: 0x221A8, symSize: 0x18 }
  - { offset: 0x74A9D, size: 0x8, addend: 0x0, symName: '__ZN4core3ptr42drop_in_place$LT$std..io..error..Error$GT$17hb47a842e9535d8eaE', symObjAddr: 0x26204, symBinAddr: 0x221C0, symSize: 0xAC }
  - { offset: 0x74D2C, size: 0x8, addend: 0x0, symName: '__ZN4core3ptr44drop_in_place$LT$object..read..ObjectMap$GT$17h103a96db4b91fe12E', symObjAddr: 0x262B0, symBinAddr: 0x2226C, symSize: 0x58 }
  - { offset: 0x74EB1, size: 0x8, addend: 0x0, symName: '__ZN4core3ptr46drop_in_place$LT$alloc..vec..Vec$LT$u8$GT$$GT$17ha092ea97ee9688bbE', symObjAddr: 0x263C8, symBinAddr: 0x222C4, symSize: 0x18 }
  - { offset: 0x74F5A, size: 0x8, addend: 0x0, symName: '__ZN4core3ptr46drop_in_place$LT$std..io..stdio..StdinLock$GT$17hda3059dbbe9b9703E', symObjAddr: 0x263E0, symBinAddr: 0x222DC, symSize: 0x54 }
  - { offset: 0x74F71, size: 0x8, addend: 0x0, symName: '__ZN4core3ptr46drop_in_place$LT$std..io..stdio..StdinLock$GT$17hda3059dbbe9b9703E', symObjAddr: 0x263E0, symBinAddr: 0x222DC, symSize: 0x54 }
  - { offset: 0x74F86, size: 0x8, addend: 0x0, symName: '__ZN4core3ptr46drop_in_place$LT$std..io..stdio..StdinLock$GT$17hda3059dbbe9b9703E', symObjAddr: 0x263E0, symBinAddr: 0x222DC, symSize: 0x54 }
  - { offset: 0x75068, size: 0x8, addend: 0x0, symName: '__ZN4core3ptr48drop_in_place$LT$alloc..ffi..c_str..NulError$GT$17h8df9e7e666a443fdE', symObjAddr: 0x26518, symBinAddr: 0x22330, symSize: 0x18 }
  - { offset: 0x7507F, size: 0x8, addend: 0x0, symName: '__ZN4core3ptr48drop_in_place$LT$alloc..ffi..c_str..NulError$GT$17h8df9e7e666a443fdE', symObjAddr: 0x26518, symBinAddr: 0x22330, symSize: 0x18 }
  - { offset: 0x75134, size: 0x8, addend: 0x0, symName: '__ZN4core3ptr557drop_in_place$LT$core..result..Result$LT$$RF$core..result..Result$LT$addr2line..function..Function$LT$gimli..read..endian_slice..EndianSlice$LT$gimli..endianity..LittleEndian$GT$$GT$$C$gimli..read..Error$GT$$C$$LP$$RF$core..result..Result$LT$addr2line..function..Function$LT$gimli..read..endian_slice..EndianSlice$LT$gimli..endianity..LittleEndian$GT$$GT$$C$gimli..read..Error$GT$$C$core..result..Result$LT$addr2line..function..Function$LT$gimli..read..endian_slice..EndianSlice$LT$gimli..endianity..LittleEndian$GT$$GT$$C$gimli..read..Error$GT$$RP$$GT$$GT$17haf2a8d06e6e1748dE', symObjAddr: 0x267FC, symBinAddr: 0x22348, symSize: 0x64 }
  - { offset: 0x75368, size: 0x8, addend: 0x0, symName: '__ZN4core3ptr55drop_in_place$LT$gimli..read..abbrev..Abbreviations$GT$17h467a83f64a5cda7bE', symObjAddr: 0x26860, symBinAddr: 0x223AC, symSize: 0x118 }
  - { offset: 0x7574B, size: 0x8, addend: 0x0, symName: '__ZN4core3ptr560drop_in_place$LT$core..result..Result$LT$$RF$core..result..Result$LT$addr2line..function..Functions$LT$gimli..read..endian_slice..EndianSlice$LT$gimli..endianity..LittleEndian$GT$$GT$$C$gimli..read..Error$GT$$C$$LP$$RF$core..result..Result$LT$addr2line..function..Functions$LT$gimli..read..endian_slice..EndianSlice$LT$gimli..endianity..LittleEndian$GT$$GT$$C$gimli..read..Error$GT$$C$core..result..Result$LT$addr2line..function..Functions$LT$gimli..read..endian_slice..EndianSlice$LT$gimli..endianity..LittleEndian$GT$$GT$$C$gimli..read..Error$GT$$RP$$GT$$GT$17h78a57019e46b5f10E', symObjAddr: 0x269FC, symBinAddr: 0x224C4, symSize: 0x10 }
  - { offset: 0x757A2, size: 0x8, addend: 0x0, symName: '__ZN4core3ptr60drop_in_place$LT$gimli..read..abbrev..AbbreviationsCache$GT$17ha8930bb3c16fd23fE', symObjAddr: 0x26A0C, symBinAddr: 0x224D4, symSize: 0xCC }
  - { offset: 0x7594C, size: 0x8, addend: 0x0, symName: '__ZN4core3ptr61drop_in_place$LT$std..panicking..resume_unwind..RewrapBox$GT$17hcc2785daaffec95aE', symObjAddr: 0x26AD8, symBinAddr: 0x225A0, symSize: 0x6C }
  - { offset: 0x75A9A, size: 0x8, addend: 0x0, symName: '__ZN4core3ptr64drop_in_place$LT$std..sys..pal..unix..sync..mutex..AttrGuard$GT$17hf7f9c82cf23e8a3fE', symObjAddr: 0x26B44, symBinAddr: 0x2260C, symSize: 0x44 }
  - { offset: 0x75AD5, size: 0x8, addend: 0x0, symName: '__ZN4core3ptr65drop_in_place$LT$alloc..vec..Vec$LT$alloc..string..String$GT$$GT$17h5da31a873ae8dba7E', symObjAddr: 0x26C00, symBinAddr: 0x22650, symSize: 0x80 }
  - { offset: 0x75C9B, size: 0x8, addend: 0x0, symName: '__ZN4core3ptr65drop_in_place$LT$std..backtrace_rs..symbolize..gimli..Context$GT$17h34cca4caf72d8866E', symObjAddr: 0x26C80, symBinAddr: 0x226D0, symSize: 0xE8 }
  - { offset: 0x75FAD, size: 0x8, addend: 0x0, symName: '__ZN4core3ptr66drop_in_place$LT$std..backtrace_rs..backtrace..libunwind..Bomb$GT$17ha91bd52f658fe1d7E', symObjAddr: 0x26D6C, symBinAddr: 0x227B8, symSize: 0x28 }
  - { offset: 0x75FE3, size: 0x8, addend: 0x0, symName: '__ZN4core3ptr701drop_in_place$LT$core..result..Result$LT$$RF$core..result..Result$LT$core..option..Option$LT$alloc..boxed..Box$LT$addr2line..unit..DwoUnit$LT$gimli..read..endian_slice..EndianSlice$LT$gimli..endianity..LittleEndian$GT$$GT$$GT$$GT$$C$gimli..read..Error$GT$$C$$LP$$RF$core..result..Result$LT$core..option..Option$LT$alloc..boxed..Box$LT$addr2line..unit..DwoUnit$LT$gimli..read..endian_slice..EndianSlice$LT$gimli..endianity..LittleEndian$GT$$GT$$GT$$GT$$C$gimli..read..Error$GT$$C$core..result..Result$LT$core..option..Option$LT$alloc..boxed..Box$LT$addr2line..unit..DwoUnit$LT$gimli..read..endian_slice..EndianSlice$LT$gimli..endianity..LittleEndian$GT$$GT$$GT$$GT$$C$gimli..read..Error$GT$$RP$$GT$$GT$17hb5914df5ecaf4418E', symObjAddr: 0x26D94, symBinAddr: 0x227E0, symSize: 0x14 }
  - { offset: 0x7607B, size: 0x8, addend: 0x0, symName: '__ZN4core3ptr70drop_in_place$LT$std..backtrace_rs..symbolize..gimli..stash..Stash$GT$17hb592c439c896e374E', symObjAddr: 0x26E28, symBinAddr: 0x227F4, symSize: 0xB8 }
  - { offset: 0x7639F, size: 0x8, addend: 0x0, symName: '__ZN4core3ptr71drop_in_place$LT$std..backtrace_rs..symbolize..gimli..macho..Object$GT$17h2ca17ded4074048eE', symObjAddr: 0x26EE0, symBinAddr: 0x228AC, symSize: 0xD8 }
  - { offset: 0x7673B, size: 0x8, addend: 0x0, symName: '__ZN4core3ptr71drop_in_place$LT$std..panicking..panic_handler..FormatStringPayload$GT$17h0901b0d590f03152E', symObjAddr: 0x26FB8, symBinAddr: 0x22984, symSize: 0x1C }
  - { offset: 0x76821, size: 0x8, addend: 0x0, symName: '__ZN4core3ptr72drop_in_place$LT$core..option..Option$LT$object..read..ObjectMap$GT$$GT$17h3a9d8e00e9891a9bE', symObjAddr: 0x26FD4, symBinAddr: 0x229A0, symSize: 0x64 }
  - { offset: 0x769EF, size: 0x8, addend: 0x0, symName: '__ZN4core3ptr73drop_in_place$LT$alloc..vec..Vec$LT$addr2line..line..LineSequence$GT$$GT$17h0172abfa4ac0edebE', symObjAddr: 0x27038, symBinAddr: 0x22A04, symSize: 0x84 }
  - { offset: 0x76B9C, size: 0x8, addend: 0x0, symName: '__ZN4core3ptr77drop_in_place$LT$alloc..boxed..Box$LT$$u5b$alloc..string..String$u5d$$GT$$GT$17haf832d073508a4aaE', symObjAddr: 0x270F4, symBinAddr: 0x22A88, symSize: 0x70 }
  - { offset: 0x76BB3, size: 0x8, addend: 0x0, symName: '__ZN4core3ptr77drop_in_place$LT$alloc..boxed..Box$LT$$u5b$alloc..string..String$u5d$$GT$$GT$17haf832d073508a4aaE', symObjAddr: 0x270F4, symBinAddr: 0x22A88, symSize: 0x70 }
  - { offset: 0x76D06, size: 0x8, addend: 0x0, symName: '__ZN4core3ptr79drop_in_place$LT$std..sync..poison..rwlock..RwLockReadGuard$LT$$LP$$RP$$GT$$GT$17h091e15822ffc9edbE', symObjAddr: 0x27194, symBinAddr: 0x22AF8, symSize: 0x58 }
  - { offset: 0x76DA0, size: 0x8, addend: 0x0, symName: '__ZN4core3ptr81drop_in_place$LT$core..result..Result$LT$$LP$$RP$$C$std..io..error..Error$GT$$GT$17h814d80e6c8b246c2E', symObjAddr: 0x27298, symBinAddr: 0x22B50, symSize: 0x10 }
  - { offset: 0x76DCD, size: 0x8, addend: 0x0, symName: '__ZN4core3ptr82drop_in_place$LT$alloc..sync..ArcInner$LT$std..sys..fs..unix..InnerReadDir$GT$$GT$17h064c76c66badd045E', symObjAddr: 0x2737C, symBinAddr: 0x22B60, symSize: 0x60 }
  - { offset: 0x76FEC, size: 0x8, addend: 0x0, symName: '__ZN4core3ptr92drop_in_place$LT$core..result..Result$LT$addr2line..line..Lines$C$gimli..read..Error$GT$$GT$17hc66e02df388e03ecE', symObjAddr: 0x27510, symBinAddr: 0x22BC0, symSize: 0xE4 }
  - { offset: 0x772DC, size: 0x8, addend: 0x0, symName: '__ZN4core3ptr93drop_in_place$LT$core..option..Option$LT$std..backtrace_rs..symbolize..gimli..Mapping$GT$$GT$17ha173ce148f3cf6eaE', symObjAddr: 0x275F4, symBinAddr: 0x22CA4, symSize: 0x6C }
  - { offset: 0x79349, size: 0x8, addend: 0x0, symName: __ZN4core5slice4sort8unstable7ipnsort17ha8a643003d62ef22E, symObjAddr: 0x31014, symBinAddr: 0x29878, symSize: 0x1A8 }
  - { offset: 0x79613, size: 0x8, addend: 0x0, symName: __ZN4core5slice4sort8unstable7ipnsort17hfe78c4a2b765fcc9E, symObjAddr: 0x311BC, symBinAddr: 0x29A20, symSize: 0xEC }
  - { offset: 0x7976A, size: 0x8, addend: 0x0, symName: __ZN4core5slice4sort8unstable8heapsort8heapsort17h573befcd8eda61e5E, symObjAddr: 0x312A8, symBinAddr: 0x29B0C, symSize: 0x160 }
  - { offset: 0x79A7A, size: 0x8, addend: 0x0, symName: __ZN4core5slice4sort8unstable8heapsort8heapsort17hdca824869f99829bE, symObjAddr: 0x31408, symBinAddr: 0x29C6C, symSize: 0x100 }
  - { offset: 0x79D0A, size: 0x8, addend: 0x0, symName: __ZN4core5slice4sort8unstable9quicksort9quicksort17h3638ec32060f422fE, symObjAddr: 0x31508, symBinAddr: 0x29D6C, symSize: 0x500 }
  - { offset: 0x7A7B4, size: 0x8, addend: 0x0, symName: __ZN4core5slice4sort8unstable9quicksort9quicksort17h6f43a7e4639d7d90E, symObjAddr: 0x31A08, symBinAddr: 0x2A26C, symSize: 0x3D8 }
  - { offset: 0x7AF6D, size: 0x8, addend: 0x0, symName: __ZN4core5slice4sort6stable14driftsort_main17h2b43a4226b91abb0E, symObjAddr: 0x2BD34, symBinAddr: 0x24598, symSize: 0x150 }
  - { offset: 0x7B308, size: 0x8, addend: 0x0, symName: __ZN4core5slice4sort6stable14driftsort_main17h61a17d40716aa9c6E, symObjAddr: 0x2BE84, symBinAddr: 0x246E8, symSize: 0x124 }
  - { offset: 0x7B683, size: 0x8, addend: 0x0, symName: __ZN4core5slice4sort6stable14driftsort_main17h8f5e0d127f8c5934E, symObjAddr: 0x2BFA8, symBinAddr: 0x2480C, symSize: 0x124 }
  - { offset: 0x7B9FE, size: 0x8, addend: 0x0, symName: __ZN4core5slice4sort6stable14driftsort_main17hb1e3406f075f1867E, symObjAddr: 0x2C0CC, symBinAddr: 0x24930, symSize: 0x124 }
  - { offset: 0x7BD79, size: 0x8, addend: 0x0, symName: __ZN4core5slice4sort6stable14driftsort_main17hc893b3697714d76aE, symObjAddr: 0x2C1F0, symBinAddr: 0x24A54, symSize: 0x128 }
  - { offset: 0x7C01C, size: 0x8, addend: 0x0, symName: __ZN4core5slice4sort6stable14driftsort_main17hcd30dcce867beb97E, symObjAddr: 0x2C318, symBinAddr: 0x24B7C, symSize: 0x150 }
  - { offset: 0x7C5CB, size: 0x8, addend: 0x0, symName: __ZN4core5slice4sort6stable5drift4sort17h5e38af9010a1a556E, symObjAddr: 0x2C468, symBinAddr: 0x24CCC, symSize: 0x4F4 }
  - { offset: 0x7CC76, size: 0x8, addend: 0x0, symName: __ZN4core5slice4sort6stable5drift4sort17h80327560a6a1c94bE, symObjAddr: 0x2C95C, symBinAddr: 0x251C0, symSize: 0x4F4 }
  - { offset: 0x7D321, size: 0x8, addend: 0x0, symName: __ZN4core5slice4sort6stable5drift4sort17h8eec2dc203ad591bE, symObjAddr: 0x2CE50, symBinAddr: 0x256B4, symSize: 0x540 }
  - { offset: 0x7D9E2, size: 0x8, addend: 0x0, symName: __ZN4core5slice4sort6stable5drift4sort17ha8d814c5c1d304f0E, symObjAddr: 0x2D390, symBinAddr: 0x25BF4, symSize: 0x4D8 }
  - { offset: 0x7DFF7, size: 0x8, addend: 0x0, symName: __ZN4core5slice4sort6stable5drift4sort17hc3241614963c3d1fE, symObjAddr: 0x2D868, symBinAddr: 0x260CC, symSize: 0x538 }
  - { offset: 0x7E68C, size: 0x8, addend: 0x0, symName: __ZN4core5slice4sort6stable5drift4sort17hdb282faf6360b05fE, symObjAddr: 0x2DDA0, symBinAddr: 0x26604, symSize: 0x5EC }
  - { offset: 0x7EF9E, size: 0x8, addend: 0x0, symName: __ZN4core5slice4sort6stable9quicksort9quicksort17h4dd0d1c0b49d71a6E, symObjAddr: 0x2E38C, symBinAddr: 0x26BF0, symSize: 0x810 }
  - { offset: 0x7FB90, size: 0x8, addend: 0x0, symName: __ZN4core5slice4sort6stable9quicksort9quicksort17h5fbbd8b769a24b09E, symObjAddr: 0x2EB9C, symBinAddr: 0x27400, symSize: 0x7FC }
  - { offset: 0x80B4E, size: 0x8, addend: 0x0, symName: __ZN4core5slice4sort6stable9quicksort9quicksort17h64319fbf65ad0bb7E, symObjAddr: 0x2F398, symBinAddr: 0x27BFC, symSize: 0x6BC }
  - { offset: 0x8162E, size: 0x8, addend: 0x0, symName: __ZN4core5slice4sort6stable9quicksort9quicksort17h9cb0acdc055fe751E, symObjAddr: 0x2FA54, symBinAddr: 0x282B8, symSize: 0x720 }
  - { offset: 0x81D95, size: 0x8, addend: 0x0, symName: __ZN4core5slice4sort6stable9quicksort9quicksort17h9fd277f3d72f346bE, symObjAddr: 0x30174, symBinAddr: 0x289D8, symSize: 0x7EC }
  - { offset: 0x82979, size: 0x8, addend: 0x0, symName: __ZN4core5slice4sort6stable9quicksort9quicksort17ha6e1efa1ee21f84aE, symObjAddr: 0x30960, symBinAddr: 0x291C4, symSize: 0x6B4 }
  - { offset: 0x83511, size: 0x8, addend: 0x0, symName: __ZN4core5slice4sort6shared9smallsort12sort4_stable17h469156677824c224E, symObjAddr: 0x2AC08, symBinAddr: 0x2346C, symSize: 0x180 }
  - { offset: 0x838FA, size: 0x8, addend: 0x0, symName: __ZN4core5slice4sort6shared9smallsort12sort4_stable17h47cd5e0d6e97a400E, symObjAddr: 0x2AD88, symBinAddr: 0x235EC, symSize: 0x194 }
  - { offset: 0x83AD6, size: 0x8, addend: 0x0, symName: __ZN4core5slice4sort6shared9smallsort12sort8_stable17h50b2266a3ed37fa9E, symObjAddr: 0x2AF1C, symBinAddr: 0x23780, symSize: 0x2B8 }
  - { offset: 0x83FB2, size: 0x8, addend: 0x0, symName: __ZN4core5slice4sort6shared9smallsort18small_sort_general17h6e7a9a9e6618d8a0E, symObjAddr: 0x2B1D4, symBinAddr: 0x23A38, symSize: 0x490 }
  - { offset: 0x846C8, size: 0x8, addend: 0x0, symName: __ZN4core5slice4sort6shared9smallsort18small_sort_general17ha4bd61284e5c0765E, symObjAddr: 0x2B664, symBinAddr: 0x23EC8, symSize: 0x3E8 }
  - { offset: 0x84BF6, size: 0x8, addend: 0x0, symName: __ZN4core5slice4sort6shared9smallsort25insertion_sort_shift_left17h5d52d1c7eb4e4745E, symObjAddr: 0x2BA4C, symBinAddr: 0x242B0, symSize: 0x94 }
  - { offset: 0x84CCC, size: 0x8, addend: 0x0, symName: __ZN4core5slice4sort6shared9smallsort25insertion_sort_shift_left17h803c5d2110d164b3E, symObjAddr: 0x2BAE0, symBinAddr: 0x24344, symSize: 0xB8 }
  - { offset: 0x84DF7, size: 0x8, addend: 0x0, symName: __ZN4core5slice4sort6shared9smallsort25insertion_sort_shift_left17had99aba7dfc2ff8dE, symObjAddr: 0x2BB98, symBinAddr: 0x243FC, symSize: 0xA8 }
  - { offset: 0x84EC0, size: 0x8, addend: 0x0, symName: __ZN4core5slice4sort6shared9smallsort25insertion_sort_shift_left17hd839558f15a084bbE, symObjAddr: 0x2BC40, symBinAddr: 0x244A4, symSize: 0xF4 }
  - { offset: 0x85254, size: 0x8, addend: 0x0, symName: __ZN4core5slice4sort6shared5pivot11median3_rec17h1b560c2c546575d6E, symObjAddr: 0x2A4E4, symBinAddr: 0x22D48, symSize: 0x11C }
  - { offset: 0x85364, size: 0x8, addend: 0x0, symName: __ZN4core5slice4sort6shared5pivot11median3_rec17h43f45571122837c6E, symObjAddr: 0x2A600, symBinAddr: 0x22E64, symSize: 0xD0 }
  - { offset: 0x85471, size: 0x8, addend: 0x0, symName: __ZN4core5slice4sort6shared5pivot11median3_rec17h7c4642b45abcfdf3E, symObjAddr: 0x2A6D0, symBinAddr: 0x22F34, symSize: 0xCC }
  - { offset: 0x8557C, size: 0x8, addend: 0x0, symName: __ZN4core5slice4sort6shared5pivot11median3_rec17ha4992078eee22457E, symObjAddr: 0x2A79C, symBinAddr: 0x23000, symSize: 0x134 }
  - { offset: 0x857B7, size: 0x8, addend: 0x0, symName: __ZN4core5slice4sort6shared5pivot11median3_rec17hb44e75e610ba05a4E, symObjAddr: 0x2A8D0, symBinAddr: 0x23134, symSize: 0xD0 }
  - { offset: 0x858C2, size: 0x8, addend: 0x0, symName: __ZN4core5slice4sort6shared5pivot11median3_rec17hb71c969603cdb7f6E, symObjAddr: 0x2A9A0, symBinAddr: 0x23204, symSize: 0xCC }
  - { offset: 0x859CD, size: 0x8, addend: 0x0, symName: __ZN4core5slice4sort6shared5pivot11median3_rec17hc544ad2542f3ad8eE, symObjAddr: 0x2AA6C, symBinAddr: 0x232D0, symSize: 0xD0 }
  - { offset: 0x85AD8, size: 0x8, addend: 0x0, symName: __ZN4core5slice4sort6shared5pivot11median3_rec17hd6004b59113fbfecE, symObjAddr: 0x2AB3C, symBinAddr: 0x233A0, symSize: 0xCC }
  - { offset: 0x86342, size: 0x8, addend: 0x0, symName: __ZN4core5panic12PanicPayload6as_str17h14346476792e989cE, symObjAddr: 0x2A4DC, symBinAddr: 0x22D40, symSize: 0x8 }
  - { offset: 0x87939, size: 0x8, addend: 0x0, symName: '__ZN42_$LT$$RF$T$u20$as$u20$core..fmt..Debug$GT$3fmt17h177c428d5772590dE', symObjAddr: 0x22E84, symBinAddr: 0x20B98, symSize: 0x1C }
  - { offset: 0x8798E, size: 0x8, addend: 0x0, symName: '__ZN42_$LT$$RF$T$u20$as$u20$core..fmt..Debug$GT$3fmt17h8fb107d9d93bf5f3E', symObjAddr: 0x23524, symBinAddr: 0x20BB4, symSize: 0x1C }
  - { offset: 0x879D5, size: 0x8, addend: 0x0, symName: '__ZN42_$LT$$RF$T$u20$as$u20$core..fmt..Debug$GT$3fmt17ha66933743b08b6feE', symObjAddr: 0x23590, symBinAddr: 0x20BD0, symSize: 0x74 }
  - { offset: 0x87AEC, size: 0x8, addend: 0x0, symName: '__ZN42_$LT$$RF$T$u20$as$u20$core..fmt..Debug$GT$3fmt17hc73e4cddec4aa4f1E', symObjAddr: 0x23804, symBinAddr: 0x20C44, symSize: 0x10 }
  - { offset: 0x87B00, size: 0x8, addend: 0x0, symName: '__ZN42_$LT$$RF$T$u20$as$u20$core..fmt..Debug$GT$3fmt17hda426fb11ecf83d1E', symObjAddr: 0x23910, symBinAddr: 0x20C54, symSize: 0x10 }
  - { offset: 0x87B71, size: 0x8, addend: 0x0, symName: '__ZN4core3fmt3num50_$LT$impl$u20$core..fmt..Debug$u20$for$u20$i32$GT$3fmt17h26d61a2b80e79249E', symObjAddr: 0x23DC4, symBinAddr: 0x20CD4, symSize: 0x18 }
  - { offset: 0x87B89, size: 0x8, addend: 0x0, symName: '__ZN4core3fmt3num50_$LT$impl$u20$core..fmt..Debug$u20$for$u20$i32$GT$3fmt17h26d61a2b80e79249E', symObjAddr: 0x23DC4, symBinAddr: 0x20CD4, symSize: 0x18 }
  - { offset: 0x87BA2, size: 0x8, addend: 0x0, symName: '__ZN4core3fmt3num52_$LT$impl$u20$core..fmt..Debug$u20$for$u20$usize$GT$3fmt17hddf28bd83d4a73e6E', symObjAddr: 0x23E24, symBinAddr: 0x20CEC, symSize: 0x18 }
  - { offset: 0x87BBA, size: 0x8, addend: 0x0, symName: '__ZN4core3fmt3num52_$LT$impl$u20$core..fmt..Debug$u20$for$u20$usize$GT$3fmt17hddf28bd83d4a73e6E', symObjAddr: 0x23E24, symBinAddr: 0x20CEC, symSize: 0x18 }
  - { offset: 0x87BF4, size: 0x8, addend: 0x0, symName: '__ZN44_$LT$$RF$T$u20$as$u20$core..fmt..Display$GT$3fmt17he413baf87c2d405bE', symObjAddr: 0x23A0C, symBinAddr: 0x20C64, symSize: 0x60 }
  - { offset: 0x87C6B, size: 0x8, addend: 0x0, symName: '__ZN44_$LT$$RF$T$u20$as$u20$core..fmt..Display$GT$3fmt17hf44a69cad7166c3fE', symObjAddr: 0x23A6C, symBinAddr: 0x20CC4, symSize: 0x10 }
  - { offset: 0x87CA6, size: 0x8, addend: 0x0, symName: __ZN4core3fmt5Write10write_char17h319fd9fe76fafdd3E, symObjAddr: 0x23FA4, symBinAddr: 0x20D04, symSize: 0x128 }
  - { offset: 0x87D20, size: 0x8, addend: 0x0, symName: __ZN4core3fmt5Write10write_char17h97051c7b8f065692E, symObjAddr: 0x240CC, symBinAddr: 0x20E2C, symSize: 0x138 }
  - { offset: 0x87EB3, size: 0x8, addend: 0x0, symName: __ZN4core3fmt5Write10write_char17hcd7ef45195c85d9dE, symObjAddr: 0x24204, symBinAddr: 0x20F64, symSize: 0x110 }
  - { offset: 0x88067, size: 0x8, addend: 0x0, symName: __ZN4core3fmt5Write10write_char17he147b3d3d9aec1baE, symObjAddr: 0x24314, symBinAddr: 0x21074, symSize: 0x168 }
  - { offset: 0x881FD, size: 0x8, addend: 0x0, symName: __ZN4core3fmt5Write9write_fmt17h538713431ac351bfE, symObjAddr: 0x245A4, symBinAddr: 0x211DC, symSize: 0x14 }
  - { offset: 0x8822C, size: 0x8, addend: 0x0, symName: __ZN4core3fmt5Write9write_fmt17h8ef5f396dd60f23fE, symObjAddr: 0x245B8, symBinAddr: 0x211F0, symSize: 0x14 }
  - { offset: 0x8825B, size: 0x8, addend: 0x0, symName: __ZN4core3fmt5Write9write_fmt17h98e28ebb511e0c3fE, symObjAddr: 0x245CC, symBinAddr: 0x21204, symSize: 0x14 }
  - { offset: 0x8828A, size: 0x8, addend: 0x0, symName: __ZN4core3fmt5Write9write_fmt17ha89f7cbf0420f3c3E, symObjAddr: 0x245E0, symBinAddr: 0x21218, symSize: 0x14 }
  - { offset: 0x882B9, size: 0x8, addend: 0x0, symName: __ZN4core3fmt5Write9write_fmt17hd0c7c5de1e8c1578E, symObjAddr: 0x2461C, symBinAddr: 0x2122C, symSize: 0x14 }
  - { offset: 0x88314, size: 0x8, addend: 0x0, symName: '__ZN50_$LT$$BP$mut$u20$T$u20$as$u20$core..fmt..Debug$GT$3fmt17hf3eb8438fbbf3411E', symObjAddr: 0x31E90, symBinAddr: 0x2A644, symSize: 0x8 }
  - { offset: 0x88332, size: 0x8, addend: 0x0, symName: '__ZN50_$LT$$BP$mut$u20$T$u20$as$u20$core..fmt..Debug$GT$3fmt17hf3eb8438fbbf3411E', symObjAddr: 0x31E90, symBinAddr: 0x2A644, symSize: 0x8 }
  - { offset: 0x88361, size: 0x8, addend: 0x0, symName: '__ZN52_$LT$$RF$mut$u20$T$u20$as$u20$core..fmt..Display$GT$3fmt17hd4ecd60d35c8f9e8E', symObjAddr: 0x3245C, symBinAddr: 0x2A64C, symSize: 0x10 }
  - { offset: 0x883E1, size: 0x8, addend: 0x0, symName: '__ZN4core3ops8function6FnOnce40call_once$u7b$$u7b$vtable.shim$u7d$$u7d$17h4218539377a2a1b5E', symObjAddr: 0x24934, symBinAddr: 0x21240, symSize: 0xC }
  - { offset: 0x88431, size: 0x8, addend: 0x0, symName: '__ZN4core3ops8function6FnOnce40call_once$u7b$$u7b$vtable.shim$u7d$$u7d$17h4e6c8110069f19edE', symObjAddr: 0x24940, symBinAddr: 0x2124C, symSize: 0xC }
  - { offset: 0x88481, size: 0x8, addend: 0x0, symName: '__ZN4core3ops8function6FnOnce40call_once$u7b$$u7b$vtable.shim$u7d$$u7d$17h8aec2d2e62ce5f2eE', symObjAddr: 0x24AAC, symBinAddr: 0x21258, symSize: 0x98 }
  - { offset: 0x885F1, size: 0x8, addend: 0x0, symName: '__ZN4core3ops8function6FnOnce40call_once$u7b$$u7b$vtable.shim$u7d$$u7d$17h9d3a33d4686cf935E', symObjAddr: 0x24B84, symBinAddr: 0x212F0, symSize: 0x4 }
  - { offset: 0x8860E, size: 0x8, addend: 0x0, symName: '__ZN4core3ops8function6FnOnce40call_once$u7b$$u7b$vtable.shim$u7d$$u7d$17h9d3a33d4686cf935E', symObjAddr: 0x24B84, symBinAddr: 0x212F0, symSize: 0x4 }
  - { offset: 0x8862C, size: 0x8, addend: 0x0, symName: '__ZN4core3ops8function6FnOnce40call_once$u7b$$u7b$vtable.shim$u7d$$u7d$17hb601ef05c40b5e16E', symObjAddr: 0x24BF4, symBinAddr: 0x212F4, symSize: 0x4 }
  - { offset: 0x88649, size: 0x8, addend: 0x0, symName: '__ZN4core3ops8function6FnOnce40call_once$u7b$$u7b$vtable.shim$u7d$$u7d$17hb601ef05c40b5e16E', symObjAddr: 0x24BF4, symBinAddr: 0x212F4, symSize: 0x4 }
  - { offset: 0x89211, size: 0x8, addend: 0x0, symName: '__ZN36_$LT$T$u20$as$u20$core..any..Any$GT$7type_id17h39e909e33a34436fE', symObjAddr: 0xC94, symBinAddr: 0x16AA0, symSize: 0x14 }
  - { offset: 0x8922E, size: 0x8, addend: 0x0, symName: '__ZN36_$LT$T$u20$as$u20$core..any..Any$GT$7type_id17h39e909e33a34436fE', symObjAddr: 0xC94, symBinAddr: 0x16AA0, symSize: 0x14 }
  - { offset: 0x89240, size: 0x8, addend: 0x0, symName: '__ZN36_$LT$T$u20$as$u20$core..any..Any$GT$7type_id17h9d86f0f0caa268bbE', symObjAddr: 0xCA8, symBinAddr: 0x16AB4, symSize: 0x14 }
  - { offset: 0x8925D, size: 0x8, addend: 0x0, symName: '__ZN36_$LT$T$u20$as$u20$core..any..Any$GT$7type_id17h9d86f0f0caa268bbE', symObjAddr: 0xCA8, symBinAddr: 0x16AB4, symSize: 0x14 }
  - { offset: 0x8926F, size: 0x8, addend: 0x0, symName: '__ZN36_$LT$T$u20$as$u20$core..any..Any$GT$7type_id17hd2a7cca6abfee825E', symObjAddr: 0xCBC, symBinAddr: 0x16AC8, symSize: 0x14 }
  - { offset: 0x8928C, size: 0x8, addend: 0x0, symName: '__ZN36_$LT$T$u20$as$u20$core..any..Any$GT$7type_id17hd2a7cca6abfee825E', symObjAddr: 0xCBC, symBinAddr: 0x16AC8, symSize: 0x14 }
  - { offset: 0x8A74D, size: 0x8, addend: 0x0, symName: '__ZN4core4cell4once17OnceCell$LT$T$GT$8try_init17h12931ad8a233136dE', symObjAddr: 0x27758, symBinAddr: 0x45984, symSize: 0x68 }
  - { offset: 0x8A7E8, size: 0x8, addend: 0x0, symName: '__ZN4core4cell4once17OnceCell$LT$T$GT$8try_init17h5e539301376400ccE', symObjAddr: 0x277C0, symBinAddr: 0x459EC, symSize: 0x48 }
  - { offset: 0x8A806, size: 0x8, addend: 0x0, symName: '__ZN4core4cell4once17OnceCell$LT$T$GT$8try_init17h5e539301376400ccE', symObjAddr: 0x277C0, symBinAddr: 0x459EC, symSize: 0x48 }
  - { offset: 0x8A81B, size: 0x8, addend: 0x0, symName: '__ZN4core4cell4once17OnceCell$LT$T$GT$8try_init17h5e539301376400ccE', symObjAddr: 0x277C0, symBinAddr: 0x459EC, symSize: 0x48 }
  - { offset: 0x8A82F, size: 0x8, addend: 0x0, symName: '__ZN4core4cell4once17OnceCell$LT$T$GT$8try_init17h5e539301376400ccE', symObjAddr: 0x277C0, symBinAddr: 0x459EC, symSize: 0x48 }
  - { offset: 0x8A86E, size: 0x8, addend: 0x0, symName: '__ZN4core4cell4once17OnceCell$LT$T$GT$8try_init17h62b732aaca9d52ccE', symObjAddr: 0x27808, symBinAddr: 0x45A34, symSize: 0xFC }
  - { offset: 0x8AB20, size: 0x8, addend: 0x0, symName: '__ZN4core4cell4once17OnceCell$LT$T$GT$8try_init17ha23576e2981dd856E', symObjAddr: 0x27904, symBinAddr: 0x45B30, symSize: 0x186C }
  - { offset: 0x8E5A2, size: 0x8, addend: 0x0, symName: '__ZN4core4cell4once17OnceCell$LT$T$GT$8try_init17hb89f7791510a2e51E', symObjAddr: 0x29170, symBinAddr: 0x4739C, symSize: 0xBE4 }
  - { offset: 0x9010A, size: 0x8, addend: 0x0, symName: '__ZN4core4cell4once17OnceCell$LT$T$GT$8try_init17hbb24d07687c9cbd6E', symObjAddr: 0x29D54, symBinAddr: 0x47F80, symSize: 0x62C }
  - { offset: 0x91260, size: 0x8, addend: 0x0, symName: '__ZN55_$LT$$RF$str$u20$as$u20$core..str..pattern..Pattern$GT$15is_contained_in17h469e9c347de94ef2E', symObjAddr: 0x32A48, symBinAddr: 0x2A65C, symSize: 0x3C0 }
  - { offset: 0x917C1, size: 0x8, addend: 0x0, symName: __ZN4core5error5Error11description17h8e35abec80ad84e6E, symObjAddr: 0x2A47C, symBinAddr: 0x22D10, symSize: 0x10 }
  - { offset: 0x917DC, size: 0x8, addend: 0x0, symName: __ZN4core5error5Error5cause17h953b607faec97eafE, symObjAddr: 0x2A49C, symBinAddr: 0x22D20, symSize: 0x8 }
  - { offset: 0x917F7, size: 0x8, addend: 0x0, symName: __ZN4core5error5Error7provide17hc570ba63aa6f105dE, symObjAddr: 0x2A4B0, symBinAddr: 0x22D28, symSize: 0x4 }
  - { offset: 0x91813, size: 0x8, addend: 0x0, symName: __ZN4core5error5Error7type_id17hfbe707ce9411fd4cE, symObjAddr: 0x2A4C8, symBinAddr: 0x22D2C, symSize: 0x14 }
  - { offset: 0x91832, size: 0x8, addend: 0x0, symName: __ZN4core5error5Error7type_id17hfbe707ce9411fd4cE, symObjAddr: 0x2A4C8, symBinAddr: 0x22D2C, symSize: 0x14 }
  - { offset: 0x9184C, size: 0x8, addend: 0x0, symName: __ZN4core9panicking13assert_failed17h1a99d922c16cfdaeE, symObjAddr: 0x31E08, symBinAddr: 0x485AC, symSize: 0x28 }
  - { offset: 0x91B39, size: 0x8, addend: 0x0, symName: __ZN5alloc5alloc15exchange_malloc17h2651c83eb5e8d63cE, symObjAddr: 0x396F4, symBinAddr: 0x2B33C, symSize: 0x48 }
  - { offset: 0x92964, size: 0x8, addend: 0x0, symName: '__ZN64_$LT$alloc..ffi..c_str..NulError$u20$as$u20$core..fmt..Debug$GT$3fmt17h332fbd8e6a73c2d4E', symObjAddr: 0x447E8, symBinAddr: 0x32828, symSize: 0x4C }
  - { offset: 0x92E0F, size: 0x8, addend: 0x0, symName: '__ZN5alloc11collections5btree3map25IntoIter$LT$K$C$V$C$A$GT$10dying_next17hb1b3a96cd69b8fe7E', symObjAddr: 0x3713C, symBinAddr: 0x2ABD0, symSize: 0x204 }
  - { offset: 0x93210, size: 0x8, addend: 0x0, symName: '__ZN5alloc11collections5btree3map25IntoIter$LT$K$C$V$C$A$GT$10dying_next17hd46bd43dd487bf34E', symObjAddr: 0x37340, symBinAddr: 0x2ADD4, symSize: 0x204 }
  - { offset: 0x93C79, size: 0x8, addend: 0x0, symName: '__ZN5alloc7raw_vec20RawVecInner$LT$A$GT$11finish_grow17h49b462f7651a4ea0E', symObjAddr: 0x39C44, symBinAddr: 0x48A74, symSize: 0x94 }
  - { offset: 0x93D95, size: 0x8, addend: 0x0, symName: '__ZN5alloc7raw_vec20RawVecInner$LT$A$GT$11finish_grow17h8d45e48f1584e635E', symObjAddr: 0x39CD8, symBinAddr: 0x48B08, symSize: 0xC4 }
  - { offset: 0x93F42, size: 0x8, addend: 0x0, symName: '__ZN5alloc7raw_vec20RawVecInner$LT$A$GT$14grow_amortized17h03e509d45a4990d0E', symObjAddr: 0x39D9C, symBinAddr: 0x48BCC, symSize: 0x70 }
  - { offset: 0x944ED, size: 0x8, addend: 0x0, symName: '__ZN5alloc7raw_vec19RawVec$LT$T$C$A$GT$8grow_one17h0b3d4fedf5981691E', symObjAddr: 0x3973C, symBinAddr: 0x485D4, symSize: 0x68 }
  - { offset: 0x94570, size: 0x8, addend: 0x0, symName: '__ZN5alloc7raw_vec19RawVec$LT$T$C$A$GT$8grow_one17h1c6eeff65bf6bc15E', symObjAddr: 0x397A4, symBinAddr: 0x4863C, symSize: 0x68 }
  - { offset: 0x945F3, size: 0x8, addend: 0x0, symName: '__ZN5alloc7raw_vec19RawVec$LT$T$C$A$GT$8grow_one17h20c64cf665f15fe4E', symObjAddr: 0x3980C, symBinAddr: 0x486A4, symSize: 0x68 }
  - { offset: 0x94676, size: 0x8, addend: 0x0, symName: '__ZN5alloc7raw_vec19RawVec$LT$T$C$A$GT$8grow_one17h37078fe3e5146b92E', symObjAddr: 0x39874, symBinAddr: 0x4870C, symSize: 0x68 }
  - { offset: 0x946F9, size: 0x8, addend: 0x0, symName: '__ZN5alloc7raw_vec19RawVec$LT$T$C$A$GT$8grow_one17h39087719d60c73baE', symObjAddr: 0x398DC, symBinAddr: 0x48774, symSize: 0x68 }
  - { offset: 0x9477C, size: 0x8, addend: 0x0, symName: '__ZN5alloc7raw_vec19RawVec$LT$T$C$A$GT$8grow_one17h46115a12f843e2d3E', symObjAddr: 0x39944, symBinAddr: 0x487DC, symSize: 0x68 }
  - { offset: 0x947FF, size: 0x8, addend: 0x0, symName: '__ZN5alloc7raw_vec19RawVec$LT$T$C$A$GT$8grow_one17h4f33bfe902b32a40E', symObjAddr: 0x399AC, symBinAddr: 0x48844, symSize: 0x68 }
  - { offset: 0x94882, size: 0x8, addend: 0x0, symName: '__ZN5alloc7raw_vec19RawVec$LT$T$C$A$GT$8grow_one17h57e45b391f3477e0E', symObjAddr: 0x39A14, symBinAddr: 0x488AC, symSize: 0x68 }
  - { offset: 0x94905, size: 0x8, addend: 0x0, symName: '__ZN5alloc7raw_vec19RawVec$LT$T$C$A$GT$8grow_one17h64dcbdae873e076bE', symObjAddr: 0x39A7C, symBinAddr: 0x48914, symSize: 0x68 }
  - { offset: 0x94988, size: 0x8, addend: 0x0, symName: '__ZN5alloc7raw_vec19RawVec$LT$T$C$A$GT$8grow_one17h69061b0f18a0f860E', symObjAddr: 0x39AE4, symBinAddr: 0x4897C, symSize: 0x28 }
  - { offset: 0x949B0, size: 0x8, addend: 0x0, symName: '__ZN5alloc7raw_vec19RawVec$LT$T$C$A$GT$8grow_one17ha3dab7cb867393e3E', symObjAddr: 0x39B0C, symBinAddr: 0x489A4, symSize: 0x68 }
  - { offset: 0x94A33, size: 0x8, addend: 0x0, symName: '__ZN5alloc7raw_vec19RawVec$LT$T$C$A$GT$8grow_one17ha689bd2f7dcd7353E', symObjAddr: 0x39B74, symBinAddr: 0x48A0C, symSize: 0x68 }
  - { offset: 0x94D1A, size: 0x8, addend: 0x0, symName: '__ZN5alloc7raw_vec20RawVecInner$LT$A$GT$7reserve21do_reserve_and_handle17h90344aef1e9872a3E', symObjAddr: 0x39E0C, symBinAddr: 0x48C3C, symSize: 0x8C }
  - { offset: 0x94EF1, size: 0x8, addend: 0x0, symName: '__ZN58_$LT$alloc..string..String$u20$as$u20$core..fmt..Debug$GT$3fmt17h099397a60a292922E', symObjAddr: 0x33D8C, symBinAddr: 0x2AA1C, symSize: 0x10 }
  - { offset: 0x94FAB, size: 0x8, addend: 0x0, symName: '__ZN58_$LT$alloc..string..String$u20$as$u20$core..fmt..Write$GT$10write_char17h9904efafb51f78b8E', symObjAddr: 0x33D9C, symBinAddr: 0x2AA2C, symSize: 0x120 }
  - { offset: 0x9514A, size: 0x8, addend: 0x0, symName: '__ZN58_$LT$alloc..string..String$u20$as$u20$core..fmt..Write$GT$9write_str17h3ffaf0979099dce0E', symObjAddr: 0x33EBC, symBinAddr: 0x2AB4C, symSize: 0x80 }
  - { offset: 0x952A3, size: 0x8, addend: 0x0, symName: '__ZN60_$LT$alloc..string..String$u20$as$u20$core..fmt..Display$GT$3fmt17h620931148dfbd646E', symObjAddr: 0x40DA0, symBinAddr: 0x3228C, symSize: 0x10 }
  - { offset: 0x956CD, size: 0x8, addend: 0x0, symName: '__ZN5alloc4sync16Arc$LT$T$C$A$GT$9drop_slow17h3dfbf94c2de416b8E', symObjAddr: 0x39390, symBinAddr: 0x2AFD8, symSize: 0x98 }
  - { offset: 0x958C4, size: 0x8, addend: 0x0, symName: '__ZN5alloc4sync16Arc$LT$T$C$A$GT$9drop_slow17h48a6351c7f0b3554E', symObjAddr: 0x39428, symBinAddr: 0x2B070, symSize: 0x70 }
  - { offset: 0x95ABB, size: 0x8, addend: 0x0, symName: '__ZN5alloc4sync16Arc$LT$T$C$A$GT$9drop_slow17h90872bb592eff208E', symObjAddr: 0x39498, symBinAddr: 0x2B0E0, symSize: 0xD0 }
  - { offset: 0x95D2A, size: 0x8, addend: 0x0, symName: '__ZN5alloc4sync16Arc$LT$T$C$A$GT$9drop_slow17h9d4d3e529ec9deb6E', symObjAddr: 0x39568, symBinAddr: 0x2B1B0, symSize: 0x2C }
  - { offset: 0x95E07, size: 0x8, addend: 0x0, symName: '__ZN5alloc4sync16Arc$LT$T$C$A$GT$9drop_slow17hcdc4884edf2028d1E', symObjAddr: 0x39594, symBinAddr: 0x2B1DC, symSize: 0xA0 }
  - { offset: 0x96181, size: 0x8, addend: 0x0, symName: '__ZN5alloc4sync16Arc$LT$T$C$A$GT$9drop_slow17hfb67952ed4e6e214E', symObjAddr: 0x39634, symBinAddr: 0x2B27C, symSize: 0xC0 }
  - { offset: 0x96CE3, size: 0x8, addend: 0x0, symName: __ZN6object4read7archive13ArchiveMember5parse17h9aa31a58ad5b9544E, symObjAddr: 0x45FD8, symBinAddr: 0x32A10, symSize: 0x598 }
  - { offset: 0x98044, size: 0x8, addend: 0x0, symName: '__ZN9addr2line4unit16ResUnit$LT$R$GT$25find_function_or_location28_$u7b$$u7b$closure$u7d$$u7d$17h4e866b147d18c9b8E', symObjAddr: 0x4CBD8, symBinAddr: 0x34DAC, symSize: 0x310 }
  - { offset: 0x983D5, size: 0x8, addend: 0x0, symName: '__ZN9addr2line4unit16ResUnit$LT$R$GT$25find_function_or_location17hafbc6b9d9ff53700E', symObjAddr: 0x4C858, symBinAddr: 0x34A2C, symSize: 0x380 }
  - { offset: 0x988F2, size: 0x8, addend: 0x0, symName: '__ZN9addr2line16Context$LT$R$GT$9find_unit17h485426245181a6dcE', symObjAddr: 0x4C28C, symBinAddr: 0x34460, symSize: 0x15C }
  - { offset: 0x98A72, size: 0x8, addend: 0x0, symName: '__ZN9addr2line6lookup30LoopingLookup$LT$T$C$L$C$F$GT$10new_lookup17hb2f1ecfb9b5a84caE', symObjAddr: 0x4D1A8, symBinAddr: 0x3537C, symSize: 0x430 }
  - { offset: 0x99059, size: 0x8, addend: 0x0, symName: __ZN9addr2line4line11render_file17h085773b8bac0fe9eE, symObjAddr: 0x4C3E8, symBinAddr: 0x345BC, symSize: 0x470 }
  - { offset: 0x99B43, size: 0x8, addend: 0x0, symName: '__ZN9addr2line8function17Function$LT$R$GT$14parse_children17h2b0cdfd636c6d6deE', symObjAddr: 0x4D93C, symBinAddr: 0x35B10, symSize: 0xE7C }
  - { offset: 0x9B3E6, size: 0x8, addend: 0x0, symName: __ZN9addr2line8function10name_entry17h5366dd95e36d4758E, symObjAddr: 0x4D5D8, symBinAddr: 0x357AC, symSize: 0x364 }
  - { offset: 0x9B8D5, size: 0x8, addend: 0x0, symName: __ZN9addr2line8function9name_attr17hccbb54a0d73a1a8bE, symObjAddr: 0x4E7B8, symBinAddr: 0x3698C, symSize: 0x1C0 }
  - { offset: 0x9BAC1, size: 0x8, addend: 0x0, symName: '__ZN9addr2line5frame18FrameIter$LT$R$GT$4next17h2ba3b0627a0239ceE', symObjAddr: 0x4CEE8, symBinAddr: 0x350BC, symSize: 0x2C0 }
  - { offset: 0x9C40B, size: 0x8, addend: 0x0, symName: '__ZN5gimli4read5dwarf14Dwarf$LT$R$GT$11attr_string17he154349ba08be5a0E', symObjAddr: 0x3EFA4, symBinAddr: 0x30490, symSize: 0x220 }
  - { offset: 0x9CABD, size: 0x8, addend: 0x0, symName: '__ZN5gimli4read5dwarf13Unit$LT$R$GT$3new17h400d9e244b1626a5E', symObjAddr: 0x3D334, symBinAddr: 0x2E820, symSize: 0x1C70 }
  - { offset: 0xA0432, size: 0x8, addend: 0x0, symName: '__ZN5gimli4read7aranges30ArangeHeader$LT$R$C$Offset$GT$5parse17h20d51668ce2d6637E', symObjAddr: 0x3FE24, symBinAddr: 0x31310, symSize: 0x2A8 }
  - { offset: 0xA0DFA, size: 0x8, addend: 0x0, symName: '__ZN5gimli4read4unit18Attribute$LT$R$GT$5value17h81c3099e26c0e9d3E', symObjAddr: 0x3C3E4, symBinAddr: 0x2D8D0, symSize: 0x654 }
  - { offset: 0xA11D2, size: 0x8, addend: 0x0, symName: '__ZN90_$LT$gimli..read..unit..AttributeValue$LT$R$C$Offset$GT$$u20$as$u20$core..clone..Clone$GT$5clone17hef8533b4a5b56874E', symObjAddr: 0x4AFCC, symBinAddr: 0x33BC4, symSize: 0x68 }
  - { offset: 0xA122D, size: 0x8, addend: 0x0, symName: '__ZN5gimli4read4unit32AttributeValue$LT$R$C$Offset$GT$8u8_value17h6289747ce1bc1c8aE', symObjAddr: 0x3CCF0, symBinAddr: 0x2E1DC, symSize: 0x94 }
  - { offset: 0xA1263, size: 0x8, addend: 0x0, symName: '__ZN5gimli4read4unit32AttributeValue$LT$R$C$Offset$GT$9u16_value17h78f20af31e13b996E', symObjAddr: 0x3CD84, symBinAddr: 0x2E270, symSize: 0x94 }
  - { offset: 0xA12DA, size: 0x8, addend: 0x0, symName: __ZN5gimli4read4unit15parse_attribute17h8c90b5e54a619388E, symObjAddr: 0x3B004, symBinAddr: 0x2C4F0, symSize: 0xF74 }
  - { offset: 0xA3B1A, size: 0x8, addend: 0x0, symName: __ZN5gimli4read4unit15skip_attributes17hbaf24547b98a9a8eE, symObjAddr: 0x3BF78, symBinAddr: 0x2D464, symSize: 0x46C }
  - { offset: 0xA43E3, size: 0x8, addend: 0x0, symName: '__ZN5gimli4read4unit22EntriesCursor$LT$R$GT$10next_entry17h6a357731a4552903E', symObjAddr: 0x3CA38, symBinAddr: 0x2DF24, symSize: 0x2B8 }
  - { offset: 0xA4987, size: 0x8, addend: 0x0, symName: '__ZN5gimli4read4unit33DebugInfoUnitHeadersIter$LT$R$GT$4next17h6fead1a387021658E', symObjAddr: 0x3CE18, symBinAddr: 0x2E304, symSize: 0x51C }
  - { offset: 0xA5B78, size: 0x8, addend: 0x0, symName: __ZN5gimli4read6reader6Reader11read_offset17hf7d76506f84029ebE, symObjAddr: 0x3F970, symBinAddr: 0x30E5C, symSize: 0xB4 }
  - { offset: 0xA5D6C, size: 0x8, addend: 0x0, symName: __ZN5gimli4read6reader6Reader12read_sleb12817h6d90c181d967cff9E, symObjAddr: 0x3FA24, symBinAddr: 0x30F10, symSize: 0x23C }
  - { offset: 0xA5E3A, size: 0x8, addend: 0x0, symName: __ZN5gimli4read6reader6Reader12read_uleb12817hfc663b7a6ef2b5adE, symObjAddr: 0x3FC60, symBinAddr: 0x3114C, symSize: 0xB8 }
  - { offset: 0xA5EF6, size: 0x8, addend: 0x0, symName: __ZN5gimli4read6reader6Reader17read_sized_offset17h01b647283d461fdfE, symObjAddr: 0x3FD18, symBinAddr: 0x31204, symSize: 0x10C }
  - { offset: 0xA6516, size: 0x8, addend: 0x0, symName: '__ZN5gimli4read8rnglists20RngListIter$LT$R$GT$4next17heee1885f9dd2ec49E', symObjAddr: 0x400CC, symBinAddr: 0x315B8, symSize: 0xCD4 }
  - { offset: 0xA8CFC, size: 0x8, addend: 0x0, symName: '__ZN5gimli4read5index18UnitIndex$LT$R$GT$5parse17hafff2d54389f565fE', symObjAddr: 0x3F1C4, symBinAddr: 0x306B0, symSize: 0x7AC }
  - { offset: 0xA93D3, size: 0x8, addend: 0x0, symName: '__ZN5gimli4read4line27FileEntry$LT$R$C$Offset$GT$5parse17h2c6ab2f1a36bd80aE', symObjAddr: 0x3ADE8, symBinAddr: 0x2C2D4, symSize: 0x21C }
  - { offset: 0xA9691, size: 0x8, addend: 0x0, symName: __ZN5gimli4read4line13parse_file_v517h94b73e56932facadE, symObjAddr: 0x39E98, symBinAddr: 0x2B384, symSize: 0x2A8 }
  - { offset: 0xA9837, size: 0x8, addend: 0x0, symName: __ZN5gimli4read4line15FileEntryFormat5parse17hcf9d6022172f9fcfE, symObjAddr: 0x3A140, symBinAddr: 0x2B62C, symSize: 0x350 }
  - { offset: 0xAA05C, size: 0x8, addend: 0x0, symName: __ZN5gimli4read4line15parse_attribute17h973ae6180450771dE, symObjAddr: 0x3A490, symBinAddr: 0x2B97C, symSize: 0x874 }
  - { offset: 0xAB5F4, size: 0x8, addend: 0x0, symName: __ZN5gimli4read4line18parse_directory_v517h25176f2ce75ce1baE, symObjAddr: 0x3AD04, symBinAddr: 0x2C1F0, symSize: 0xE4 }
  - { offset: 0xAB6C7, size: 0x8, addend: 0x0, symName: '__ZN85_$LT$gimli..read..line..FileEntry$LT$R$C$Offset$GT$$u20$as$u20$core..clone..Clone$GT$5clone17h44768d28f42098d8E', symObjAddr: 0x4A8D4, symBinAddr: 0x33984, symSize: 0x1D4 }
  - { offset: 0xAB8D5, size: 0x8, addend: 0x0, symName: _OUTLINED_FUNCTION_0, symObjAddr: 0x4EDFC, symBinAddr: 0x36EC4, symSize: 0xC }
  - { offset: 0xAB8ED, size: 0x8, addend: 0x0, symName: _OUTLINED_FUNCTION_1, symObjAddr: 0x4EE08, symBinAddr: 0x36ED0, symSize: 0x8 }
  - { offset: 0xAB905, size: 0x8, addend: 0x0, symName: _OUTLINED_FUNCTION_2, symObjAddr: 0x4EE10, symBinAddr: 0x36ED8, symSize: 0xC }
  - { offset: 0xAB91D, size: 0x8, addend: 0x0, symName: _OUTLINED_FUNCTION_3, symObjAddr: 0x4EE1C, symBinAddr: 0x36EE4, symSize: 0xC }
  - { offset: 0xAB935, size: 0x8, addend: 0x0, symName: _OUTLINED_FUNCTION_4, symObjAddr: 0x4EE28, symBinAddr: 0x36EF0, symSize: 0x10 }
  - { offset: 0xAB94D, size: 0x8, addend: 0x0, symName: _OUTLINED_FUNCTION_5, symObjAddr: 0x4EE38, symBinAddr: 0x36F00, symSize: 0x10 }
  - { offset: 0xAB965, size: 0x8, addend: 0x0, symName: _OUTLINED_FUNCTION_6, symObjAddr: 0x4EE48, symBinAddr: 0x36F10, symSize: 0xC }
  - { offset: 0xAB97D, size: 0x8, addend: 0x0, symName: _OUTLINED_FUNCTION_7, symObjAddr: 0x4EE54, symBinAddr: 0x36F1C, symSize: 0xC }
  - { offset: 0xAB995, size: 0x8, addend: 0x0, symName: _OUTLINED_FUNCTION_8, symObjAddr: 0x4EE60, symBinAddr: 0x36F28, symSize: 0xC }
  - { offset: 0xAB9AD, size: 0x8, addend: 0x0, symName: _OUTLINED_FUNCTION_9, symObjAddr: 0x4EE6C, symBinAddr: 0x36F34, symSize: 0xC }
  - { offset: 0xAB9C5, size: 0x8, addend: 0x0, symName: _OUTLINED_FUNCTION_10, symObjAddr: 0x4EE78, symBinAddr: 0x36F40, symSize: 0x8 }
  - { offset: 0xAB9DD, size: 0x8, addend: 0x0, symName: _OUTLINED_FUNCTION_11, symObjAddr: 0x4EE80, symBinAddr: 0x36F48, symSize: 0x8 }
  - { offset: 0xAB9F5, size: 0x8, addend: 0x0, symName: _OUTLINED_FUNCTION_12, symObjAddr: 0x4EE88, symBinAddr: 0x36F50, symSize: 0x24 }
  - { offset: 0xABA0D, size: 0x8, addend: 0x0, symName: _OUTLINED_FUNCTION_13, symObjAddr: 0x4EEAC, symBinAddr: 0x36F74, symSize: 0x8 }
  - { offset: 0xABA25, size: 0x8, addend: 0x0, symName: _OUTLINED_FUNCTION_14, symObjAddr: 0x4EEB4, symBinAddr: 0x36F7C, symSize: 0x14 }
  - { offset: 0xABA3D, size: 0x8, addend: 0x0, symName: _OUTLINED_FUNCTION_15, symObjAddr: 0x4EEC8, symBinAddr: 0x36F90, symSize: 0xC }
  - { offset: 0xABA55, size: 0x8, addend: 0x0, symName: _OUTLINED_FUNCTION_16, symObjAddr: 0x4EED4, symBinAddr: 0x36F9C, symSize: 0x10 }
  - { offset: 0xABA6D, size: 0x8, addend: 0x0, symName: _OUTLINED_FUNCTION_17, symObjAddr: 0x4EEE4, symBinAddr: 0x36FAC, symSize: 0x10 }
  - { offset: 0xABA85, size: 0x8, addend: 0x0, symName: _OUTLINED_FUNCTION_18, symObjAddr: 0x4EEF4, symBinAddr: 0x36FBC, symSize: 0x8 }
  - { offset: 0xABA9D, size: 0x8, addend: 0x0, symName: _OUTLINED_FUNCTION_19, symObjAddr: 0x4EEFC, symBinAddr: 0x36FC4, symSize: 0x8 }
  - { offset: 0xABAB5, size: 0x8, addend: 0x0, symName: _OUTLINED_FUNCTION_20, symObjAddr: 0x4EF04, symBinAddr: 0x36FCC, symSize: 0x8 }
  - { offset: 0xABACD, size: 0x8, addend: 0x0, symName: _OUTLINED_FUNCTION_21, symObjAddr: 0x4EF0C, symBinAddr: 0x36FD4, symSize: 0x18 }
  - { offset: 0xABAE5, size: 0x8, addend: 0x0, symName: _OUTLINED_FUNCTION_22, symObjAddr: 0x4EF24, symBinAddr: 0x36FEC, symSize: 0x18 }
  - { offset: 0xABAFD, size: 0x8, addend: 0x0, symName: _OUTLINED_FUNCTION_23, symObjAddr: 0x4EF3C, symBinAddr: 0x37004, symSize: 0x8 }
  - { offset: 0xABB15, size: 0x8, addend: 0x0, symName: _OUTLINED_FUNCTION_25, symObjAddr: 0x4EF50, symBinAddr: 0x3700C, symSize: 0xC }
  - { offset: 0xABB2D, size: 0x8, addend: 0x0, symName: _OUTLINED_FUNCTION_26, symObjAddr: 0x4EF5C, symBinAddr: 0x37018, symSize: 0x8 }
  - { offset: 0xABB45, size: 0x8, addend: 0x0, symName: _OUTLINED_FUNCTION_27, symObjAddr: 0x4EF64, symBinAddr: 0x37020, symSize: 0xC }
  - { offset: 0xABB5D, size: 0x8, addend: 0x0, symName: _OUTLINED_FUNCTION_28, symObjAddr: 0x4EF70, symBinAddr: 0x3702C, symSize: 0x8 }
  - { offset: 0xABB75, size: 0x8, addend: 0x0, symName: _OUTLINED_FUNCTION_29, symObjAddr: 0x4EF78, symBinAddr: 0x37034, symSize: 0xC }
  - { offset: 0xABB8D, size: 0x8, addend: 0x0, symName: _OUTLINED_FUNCTION_30, symObjAddr: 0x4EF84, symBinAddr: 0x37040, symSize: 0x8 }
  - { offset: 0xABBA5, size: 0x8, addend: 0x0, symName: _OUTLINED_FUNCTION_31, symObjAddr: 0x4EF8C, symBinAddr: 0x37048, symSize: 0xC }
  - { offset: 0xABBBD, size: 0x8, addend: 0x0, symName: _OUTLINED_FUNCTION_32, symObjAddr: 0x4EF98, symBinAddr: 0x37054, symSize: 0x8 }
  - { offset: 0xABBD5, size: 0x8, addend: 0x0, symName: _OUTLINED_FUNCTION_33, symObjAddr: 0x4EFA0, symBinAddr: 0x3705C, symSize: 0xC }
  - { offset: 0xABBED, size: 0x8, addend: 0x0, symName: _OUTLINED_FUNCTION_34, symObjAddr: 0x4EFAC, symBinAddr: 0x37068, symSize: 0xC }
  - { offset: 0xABC05, size: 0x8, addend: 0x0, symName: _OUTLINED_FUNCTION_35, symObjAddr: 0x4EFB8, symBinAddr: 0x37074, symSize: 0x10 }
  - { offset: 0xABC1D, size: 0x8, addend: 0x0, symName: _OUTLINED_FUNCTION_36, symObjAddr: 0x4EFC8, symBinAddr: 0x37084, symSize: 0x14 }
  - { offset: 0xABC35, size: 0x8, addend: 0x0, symName: _OUTLINED_FUNCTION_37, symObjAddr: 0x4EFDC, symBinAddr: 0x37098, symSize: 0x14 }
  - { offset: 0xABC4D, size: 0x8, addend: 0x0, symName: _OUTLINED_FUNCTION_38, symObjAddr: 0x4EFF0, symBinAddr: 0x370AC, symSize: 0xC }
  - { offset: 0xABC65, size: 0x8, addend: 0x0, symName: _OUTLINED_FUNCTION_39, symObjAddr: 0x4EFFC, symBinAddr: 0x370B8, symSize: 0xC }
  - { offset: 0xABC7D, size: 0x8, addend: 0x0, symName: _OUTLINED_FUNCTION_40, symObjAddr: 0x4F008, symBinAddr: 0x370C4, symSize: 0xC }
  - { offset: 0xABC95, size: 0x8, addend: 0x0, symName: _OUTLINED_FUNCTION_41, symObjAddr: 0x4F014, symBinAddr: 0x370D0, symSize: 0x14 }
  - { offset: 0xABCAD, size: 0x8, addend: 0x0, symName: _OUTLINED_FUNCTION_42, symObjAddr: 0x4F028, symBinAddr: 0x370E4, symSize: 0xC }
  - { offset: 0xABCC5, size: 0x8, addend: 0x0, symName: _OUTLINED_FUNCTION_43, symObjAddr: 0x4F034, symBinAddr: 0x370F0, symSize: 0x14 }
  - { offset: 0xABCDD, size: 0x8, addend: 0x0, symName: _OUTLINED_FUNCTION_44, symObjAddr: 0x4F048, symBinAddr: 0x37104, symSize: 0x14 }
  - { offset: 0xABCF5, size: 0x8, addend: 0x0, symName: _OUTLINED_FUNCTION_45, symObjAddr: 0x4F05C, symBinAddr: 0x37118, symSize: 0xC }
  - { offset: 0xABD2A, size: 0x8, addend: 0x0, symName: __RNvCs5QKde7ScR4H_7___rustc18___rust_start_panic, symObjAddr: 0x0, symBinAddr: 0x37124, symSize: 0xA0 }
  - { offset: 0xABE60, size: 0x8, addend: 0x0, symName: __ZN12panic_unwind3imp5panic17exception_cleanup17h422a4f5df43e6584E, symObjAddr: 0x108, symBinAddr: 0x3722C, symSize: 0x18 }
  - { offset: 0xABE7C, size: 0x8, addend: 0x0, symName: __RNvCs5QKde7ScR4H_7___rustc18___rust_start_panic, symObjAddr: 0x0, symBinAddr: 0x37124, symSize: 0xA0 }
  - { offset: 0xABF1D, size: 0x8, addend: 0x0, symName: __RNvCs5QKde7ScR4H_7___rustc20___rust_panic_cleanup, symObjAddr: 0xA0, symBinAddr: 0x371C4, symSize: 0x68 }
  - { offset: 0xAC038, size: 0x8, addend: 0x0, symName: '__ZN4core3ptr49drop_in_place$LT$panic_unwind..imp..Exception$GT$17h86c19963f3bb4ddfE', symObjAddr: 0x120, symBinAddr: 0x37244, symSize: 0x78 }
  - { offset: 0xAC193, size: 0x8, addend: 0x0, symName: '__ZN4core3ptr74drop_in_place$LT$alloc..boxed..Box$LT$panic_unwind..imp..Exception$GT$$GT$17hd3523428b22dea99E', symObjAddr: 0x198, symBinAddr: 0x372BC, symSize: 0x8C }
  - { offset: 0xAC513, size: 0x8, addend: 0x0, symName: __ZN5alloc5alloc18handle_alloc_error17h3b40831c24d87d14E, symObjAddr: 0x2E34, symBinAddr: 0x48E58, symSize: 0x18 }
  - { offset: 0xAC56A, size: 0x8, addend: 0x0, symName: '__ZN254_$LT$alloc..boxed..convert..$LT$impl$u20$core..convert..From$LT$alloc..string..String$GT$$u20$for$u20$alloc..boxed..Box$LT$dyn$u20$core..error..Error$u2b$core..marker..Sync$u2b$core..marker..Send$GT$$GT$..from..StringError$u20$as$u20$core..fmt..Debug$GT$3fmt17hc446d6bac796637dE', symObjAddr: 0xA8, symBinAddr: 0x3ECA4, symSize: 0x10 }
  - { offset: 0xAC63B, size: 0x8, addend: 0x0, symName: '__ZN256_$LT$alloc..boxed..convert..$LT$impl$u20$core..convert..From$LT$alloc..string..String$GT$$u20$for$u20$alloc..boxed..Box$LT$dyn$u20$core..error..Error$u2b$core..marker..Sync$u2b$core..marker..Send$GT$$GT$..from..StringError$u20$as$u20$core..fmt..Display$GT$3fmt17h90f9c27648ab0a85E', symObjAddr: 0xB8, symBinAddr: 0x3ECB4, symSize: 0x10 }
  - { offset: 0xAC719, size: 0x8, addend: 0x0, symName: __ZN5alloc3ffi5c_str7CString19_from_vec_unchecked17hd89d9cf25fc29871E, symObjAddr: 0x8D4, symBinAddr: 0x3EE94, symSize: 0x118 }
  - { offset: 0xACA9A, size: 0x8, addend: 0x0, symName: '__ZN81_$LT$$RF$$u5b$u8$u5d$$u20$as$u20$alloc..ffi..c_str..CString..new..SpecNewImpl$GT$13spec_new_impl17h96039c7f2f5d861bE', symObjAddr: 0x518C, symBinAddr: 0x3F474, symSize: 0x114 }
  - { offset: 0xACEA2, size: 0x8, addend: 0x0, symName: '__ZN5alloc7raw_vec20RawVecInner$LT$A$GT$11finish_grow17h1f24ed514a1bb79eE', symObjAddr: 0x47A4, symBinAddr: 0x48EA4, symSize: 0x8C }
  - { offset: 0xAD0AB, size: 0x8, addend: 0x0, symName: __ZN5alloc7raw_vec12handle_error17h97e8d61a4c5683faE, symObjAddr: 0x4710, symBinAddr: 0x48E70, symSize: 0x14 }
  - { offset: 0xAD0F1, size: 0x8, addend: 0x0, symName: __ZN5alloc7raw_vec17capacity_overflow17h4852277d44d1c1c9E, symObjAddr: 0x4724, symBinAddr: 0x48E84, symSize: 0x20 }
  - { offset: 0xAD122, size: 0x8, addend: 0x0, symName: '__ZN5alloc7raw_vec20RawVecInner$LT$A$GT$7reserve21do_reserve_and_handle17h90b3837adf483826E', symObjAddr: 0x4830, symBinAddr: 0x48F30, symSize: 0x78 }
  - { offset: 0xAD425, size: 0x8, addend: 0x0, symName: __ZN5alloc6string6String15from_utf8_lossy17hde2382a5883ef92eE, symObjAddr: 0x3D68, symBinAddr: 0x3F1D4, symSize: 0x21C }
  - { offset: 0xAD9B2, size: 0x8, addend: 0x0, symName: '__ZN58_$LT$alloc..string..String$u20$as$u20$core..fmt..Write$GT$10write_char17h9904efafb51f78b8E', symObjAddr: 0x1C4, symBinAddr: 0x3ED04, symSize: 0x118 }
  - { offset: 0xADB51, size: 0x8, addend: 0x0, symName: '__ZN58_$LT$alloc..string..String$u20$as$u20$core..fmt..Write$GT$9write_str17h3ffaf0979099dce0E', symObjAddr: 0x2DC, symBinAddr: 0x3EE1C, symSize: 0x78 }
  - { offset: 0xADCB6, size: 0x8, addend: 0x0, symName: '__ZN98_$LT$alloc..string..String$u20$as$u20$core..convert..From$LT$alloc..borrow..Cow$LT$str$GT$$GT$$GT$4from17h8575f17583162c5bE', symObjAddr: 0x58E4, symBinAddr: 0x3F588, symSize: 0x94 }
  - { offset: 0xADDF7, size: 0x8, addend: 0x0, symName: '__ZN60_$LT$alloc..string..String$u20$as$u20$core..clone..Clone$GT$5clone17h65381f6df886e978E', symObjAddr: 0x4924, symBinAddr: 0x3F3F0, symSize: 0x70 }
  - { offset: 0xADF67, size: 0x8, addend: 0x0, symName: __ZN5alloc3fmt6format12format_inner17hfd66a10598e1d54bE, symObjAddr: 0xABC, symBinAddr: 0x3EFAC, symSize: 0x1B4 }
  - { offset: 0xAE25C, size: 0x8, addend: 0x0, symName: __ZN5alloc4sync32arcinner_layout_for_value_layout17hcd6ab4ca88c09aebE, symObjAddr: 0x2014, symBinAddr: 0x3F160, symSize: 0x74 }
  - { offset: 0xAE3F1, size: 0x8, addend: 0x0, symName: '__ZN4core3ptr42drop_in_place$LT$alloc..string..String$GT$17hb29ec7c9ad6ce287E', symObjAddr: 0x104, symBinAddr: 0x3ECD8, symSize: 0x18 }
  - { offset: 0xAE5A3, size: 0x8, addend: 0x0, symName: __ZN4core3fmt5Write9write_fmt17h5b4f4a91d7d72e0fE, symObjAddr: 0xD8, symBinAddr: 0x3ECC4, symSize: 0x14 }
  - { offset: 0xAE5E4, size: 0x8, addend: 0x0, symName: '__ZN53_$LT$core..fmt..Error$u20$as$u20$core..fmt..Debug$GT$3fmt17hae3bab0f290aff5aE', symObjAddr: 0x14C, symBinAddr: 0x3ECF0, symSize: 0x14 }
  - { offset: 0xAE770, size: 0x8, addend: 0x0, symName: '__ZN69_$LT$core..alloc..layout..LayoutError$u20$as$u20$core..fmt..Debug$GT$3fmt17h51ac2ee096977db1E', symObjAddr: 0x4C50, symBinAddr: 0x3F460, symSize: 0x14 }
  - { offset: 0xAE814, size: 0x8, addend: 0x0, symName: '__ZN71_$LT$core..ops..range..Range$LT$Idx$GT$$u20$as$u20$core..fmt..Debug$GT$3fmt17h11f4633ee40cde50E', symObjAddr: 0x1B7F8, symBinAddr: 0x44208, symSize: 0x5C }
  - { offset: 0xAEA3C, size: 0x8, addend: 0x0, symName: '__ZN4core4char7methods22_$LT$impl$u20$char$GT$16escape_debug_ext17h3246e5c7618a6259E', symObjAddr: 0x14964, symBinAddr: 0x435FC, symSize: 0x284 }
  - { offset: 0xAF04B, size: 0x8, addend: 0x0, symName: __ZN4core6option13expect_failed17h5631e2cc858bf370E, symObjAddr: 0x150D8, symBinAddr: 0x490B8, symSize: 0x30 }
  - { offset: 0xAF07B, size: 0x8, addend: 0x0, symName: __ZN4core6option13unwrap_failed17h166c889ad3161268E, symObjAddr: 0x15108, symBinAddr: 0x490E8, symSize: 0x1C }
  - { offset: 0xAF521, size: 0x8, addend: 0x0, symName: __ZN4core5slice5index16slice_index_fail17h5480dafd3d82e600E, symObjAddr: 0x14E28, symBinAddr: 0x49004, symSize: 0xB4 }
  - { offset: 0xAF5F4, size: 0x8, addend: 0x0, symName: __ZN4core5slice6memchr14memchr_aligned17h658be0064b80f016E, symObjAddr: 0x14EDC, symBinAddr: 0x438AC, symSize: 0xDC }
  - { offset: 0xAF60B, size: 0x8, addend: 0x0, symName: __ZN4core5slice6memchr14memchr_aligned17h658be0064b80f016E, symObjAddr: 0x14EDC, symBinAddr: 0x438AC, symSize: 0xDC }
  - { offset: 0xAF620, size: 0x8, addend: 0x0, symName: __ZN4core5slice6memchr14memchr_aligned17h658be0064b80f016E, symObjAddr: 0x14EDC, symBinAddr: 0x438AC, symSize: 0xDC }
  - { offset: 0xAF634, size: 0x8, addend: 0x0, symName: __ZN4core5slice6memchr14memchr_aligned17h658be0064b80f016E, symObjAddr: 0x14EDC, symBinAddr: 0x438AC, symSize: 0xDC }
  - { offset: 0xAF649, size: 0x8, addend: 0x0, symName: __ZN4core5slice6memchr14memchr_aligned17h658be0064b80f016E, symObjAddr: 0x14EDC, symBinAddr: 0x438AC, symSize: 0xDC }
  - { offset: 0xAF6F7, size: 0x8, addend: 0x0, symName: __ZN4core5slice6memchr7memrchr17h3357a46c15deb810E, symObjAddr: 0x14FB8, symBinAddr: 0x43988, symSize: 0x120 }
  - { offset: 0xAF90C, size: 0x8, addend: 0x0, symName: __ZN4core5slice4sort6shared9smallsort22panic_on_ord_violation17h67b8176213e711b6E, symObjAddr: 0x14D2C, symBinAddr: 0x48FE4, symSize: 0x20 }
  - { offset: 0xAF933, size: 0x8, addend: 0x0, symName: __ZN4core5slice4sort6stable5drift11sqrt_approx17hb90d12192a85e22dE, symObjAddr: 0x14D4C, symBinAddr: 0x43880, symSize: 0x2C }
  - { offset: 0xAFA20, size: 0x8, addend: 0x0, symName: __ZN4core3fmt9Formatter10debug_list17h99697597ed026270E, symObjAddr: 0x964C, symBinAddr: 0x411A4, symSize: 0x48 }
  - { offset: 0xAFA5F, size: 0x8, addend: 0x0, symName: __ZN4core3fmt9Formatter11debug_tuple17hdd7c82e0f49ab5eaE, symObjAddr: 0x9694, symBinAddr: 0x411EC, symSize: 0x50 }
  - { offset: 0xAFAAB, size: 0x8, addend: 0x0, symName: __ZN4core3fmt9Formatter12debug_struct17h0a35edc54b908e18E, symObjAddr: 0x96E4, symBinAddr: 0x4123C, symSize: 0x3C }
  - { offset: 0xAFB10, size: 0x8, addend: 0x0, symName: __ZN4core3fmt9Formatter12pad_integral17h53df9aeab2bf6d7eE, symObjAddr: 0x979C, symBinAddr: 0x412F4, symSize: 0x3B4 }
  - { offset: 0xAFE63, size: 0x8, addend: 0x0, symName: __ZN4core3fmt9Formatter25debug_tuple_field1_finish17hfe3074b00f708274E, symObjAddr: 0xA008, symBinAddr: 0x416A8, symSize: 0x160 }
  - { offset: 0xB005D, size: 0x8, addend: 0x0, symName: __ZN4core3fmt9Formatter25debug_tuple_field2_finish17h4dc277e3104fd06eE, symObjAddr: 0xA168, symBinAddr: 0x41808, symSize: 0x1D8 }
  - { offset: 0xB0354, size: 0x8, addend: 0x0, symName: __ZN4core3fmt9Formatter26debug_struct_field1_finish17h5faa61f6e05c87e5E, symObjAddr: 0xAF20, symBinAddr: 0x419E0, symSize: 0xD0 }
  - { offset: 0xB0423, size: 0x8, addend: 0x0, symName: __ZN4core3fmt9Formatter26debug_struct_field2_finish17h13edb47884af88cbE, symObjAddr: 0xAFF0, symBinAddr: 0x41AB0, symSize: 0x104 }
  - { offset: 0xB04F9, size: 0x8, addend: 0x0, symName: __ZN4core3fmt9Formatter3pad17h83cad1b52a97ef58E, symObjAddr: 0xB604, symBinAddr: 0x41BB4, symSize: 0x30C }
  - { offset: 0xB0857, size: 0x8, addend: 0x0, symName: __ZN4core3fmt9Formatter9write_str17hbcdf83527753b9bcE, symObjAddr: 0xB9BC, symBinAddr: 0x41EC0, symSize: 0x10 }
  - { offset: 0xB08C2, size: 0x8, addend: 0x0, symName: __ZN4core3fmt8builders11DebugStruct21finish_non_exhaustive17h9fb7dd5cc7a739dfE, symObjAddr: 0x8AF4, symBinAddr: 0x40D1C, symSize: 0xC4 }
  - { offset: 0xB09EA, size: 0x8, addend: 0x0, symName: __ZN4core3fmt8builders11DebugStruct5field17ha008bc786cd9a2fdE, symObjAddr: 0x8BB8, symBinAddr: 0x40DE0, symSize: 0x1B4 }
  - { offset: 0xB0BF4, size: 0x8, addend: 0x0, symName: __ZN4core3fmt8builders11DebugStruct6finish17h93a36d829051f804E, symObjAddr: 0x8D6C, symBinAddr: 0x40F94, symSize: 0x7C }
  - { offset: 0xB0D25, size: 0x8, addend: 0x0, symName: __ZN4core3fmt8builders10DebugTuple5field17h37c648eaf108365eE, symObjAddr: 0x88D4, symBinAddr: 0x40B20, symSize: 0x148 }
  - { offset: 0xB0EA2, size: 0x8, addend: 0x0, symName: __ZN4core3fmt8builders10DebugTuple6finish17h8aef907a98092ddfE, symObjAddr: 0x8A1C, symBinAddr: 0x40C68, symSize: 0xB4 }
  - { offset: 0xB0FE0, size: 0x8, addend: 0x0, symName: __ZN4core3fmt8builders8DebugSet5entry17h3629c8d83309d6d7E, symObjAddr: 0x93A4, symBinAddr: 0x41010, symSize: 0x148 }
  - { offset: 0xB11BC, size: 0x8, addend: 0x0, symName: __ZN4core3fmt8builders9DebugList6finish17hed8c8fff9412d267E, symObjAddr: 0x9600, symBinAddr: 0x41158, symSize: 0x4C }
  - { offset: 0xB1236, size: 0x8, addend: 0x0, symName: '__ZN68_$LT$core..fmt..builders..PadAdapter$u20$as$u20$core..fmt..Write$GT$10write_char17h1f40c6c36619927aE', symObjAddr: 0x1A5B4, symBinAddr: 0x43F60, symSize: 0x80 }
  - { offset: 0xB125F, size: 0x8, addend: 0x0, symName: '__ZN68_$LT$core..fmt..builders..PadAdapter$u20$as$u20$core..fmt..Write$GT$9write_str17h739b9e2e5dbbd303E', symObjAddr: 0x1A634, symBinAddr: 0x43FE0, symSize: 0x228 }
  - { offset: 0xB14D9, size: 0x8, addend: 0x0, symName: '__ZN57_$LT$core..fmt..Formatter$u20$as$u20$core..fmt..Write$GT$10write_char17h984cbaf3daf0c8adE', symObjAddr: 0x16E34, symBinAddr: 0x43F2C, symSize: 0x10 }
  - { offset: 0xB1512, size: 0x8, addend: 0x0, symName: '__ZN40_$LT$str$u20$as$u20$core..fmt..Debug$GT$3fmt17hd2d82a5aea2511e8E', symObjAddr: 0x2F4, symBinAddr: 0x3F61C, symSize: 0x38C }
  - { offset: 0xB19C3, size: 0x8, addend: 0x0, symName: '__ZN41_$LT$char$u20$as$u20$core..fmt..Debug$GT$3fmt17h71c213358e065a2cE', symObjAddr: 0x680, symBinAddr: 0x3F9A8, symSize: 0xA8 }
  - { offset: 0xB1BB4, size: 0x8, addend: 0x0, symName: '__ZN4core3fmt3num3imp21_$LT$impl$u20$u32$GT$10_fmt_inner17h5b2b8fa1eacc0bcfE', symObjAddr: 0x1D60, symBinAddr: 0x3FE74, symSize: 0x1F0 }
  - { offset: 0xB1C6E, size: 0x8, addend: 0x0, symName: '__ZN4core3fmt3num3imp21_$LT$impl$u20$u64$GT$10_fmt_inner17hdc2ac0c47b5e6b6dE', symObjAddr: 0x1FAC, symBinAddr: 0x40064, symSize: 0x1F8 }
  - { offset: 0xB1D27, size: 0x8, addend: 0x0, symName: '__ZN4core3fmt3num3imp51_$LT$impl$u20$core..fmt..Display$u20$for$u20$u8$GT$3fmt17h2aac956623a4145cE', symObjAddr: 0x22D0, symBinAddr: 0x4025C, symSize: 0xB0 }
  - { offset: 0xB1E0B, size: 0x8, addend: 0x0, symName: '__ZN4core3fmt3num3imp52_$LT$impl$u20$core..fmt..Display$u20$for$u20$i32$GT$3fmt17h3e718042e4081c2fE', symObjAddr: 0x24A0, symBinAddr: 0x4030C, symSize: 0x6C }
  - { offset: 0xB1EB4, size: 0x8, addend: 0x0, symName: '__ZN4core3fmt3num3imp52_$LT$impl$u20$core..fmt..Display$u20$for$u20$u32$GT$3fmt17h00f747df55cb6d6eE', symObjAddr: 0x2680, symBinAddr: 0x40378, symSize: 0x60 }
  - { offset: 0xB1F5B, size: 0x8, addend: 0x0, symName: '__ZN4core3fmt3num3imp52_$LT$impl$u20$core..fmt..Display$u20$for$u20$u64$GT$3fmt17h085de41122354ce6E', symObjAddr: 0x26E0, symBinAddr: 0x403D8, symSize: 0x60 }
  - { offset: 0xB2010, size: 0x8, addend: 0x0, symName: '__ZN4core3fmt3num52_$LT$impl$u20$core..fmt..LowerHex$u20$for$u20$u8$GT$3fmt17had034a1db393ea33E', symObjAddr: 0x4528, symBinAddr: 0x4062C, symSize: 0x74 }
  - { offset: 0xB2080, size: 0x8, addend: 0x0, symName: '__ZN4core3fmt3num52_$LT$impl$u20$core..fmt..UpperHex$u20$for$u20$u8$GT$3fmt17h4329988f9618996cE', symObjAddr: 0x4610, symBinAddr: 0x406A0, symSize: 0x74 }
  - { offset: 0xB2103, size: 0x8, addend: 0x0, symName: '__ZN4core3fmt3num53_$LT$impl$u20$core..fmt..LowerHex$u20$for$u20$i32$GT$3fmt17h669f6375ba8b2a89E', symObjAddr: 0x47D0, symBinAddr: 0x40714, symSize: 0x74 }
  - { offset: 0xB2188, size: 0x8, addend: 0x0, symName: '__ZN4core3fmt3num53_$LT$impl$u20$core..fmt..UpperHex$u20$for$u20$u32$GT$3fmt17hd468277648dc35fdE', symObjAddr: 0x4BE4, symBinAddr: 0x40870, symSize: 0x74 }
  - { offset: 0xB21F8, size: 0x8, addend: 0x0, symName: '__ZN4core3fmt3num53_$LT$impl$u20$core..fmt..UpperHex$u20$for$u20$i32$GT$3fmt17hcaa5ebb05661f33fE', symObjAddr: 0x4A88, symBinAddr: 0x407FC, symSize: 0x74 }
  - { offset: 0xB227D, size: 0x8, addend: 0x0, symName: '__ZN4core3fmt3num53_$LT$impl$u20$core..fmt..LowerHex$u20$for$u20$u64$GT$3fmt17h7e60cb090217ac48E', symObjAddr: 0x49A0, symBinAddr: 0x40788, symSize: 0x74 }
  - { offset: 0xB22ED, size: 0x8, addend: 0x0, symName: '__ZN4core3fmt3num53_$LT$impl$u20$core..fmt..UpperHex$u20$for$u20$u64$GT$3fmt17ha5992a64247d5125E', symObjAddr: 0x4C58, symBinAddr: 0x408E4, symSize: 0x74 }
  - { offset: 0xB2351, size: 0x8, addend: 0x0, symName: '__ZN4core3fmt3num50_$LT$impl$u20$core..fmt..Debug$u20$for$u20$u64$GT$3fmt17h0e0cd6ae854f552bE', symObjAddr: 0x3918, symBinAddr: 0x40438, symSize: 0xF4 }
  - { offset: 0xB2480, size: 0x8, addend: 0x0, symName: '__ZN4core3fmt3num52_$LT$impl$u20$core..fmt..Debug$u20$for$u20$usize$GT$3fmt17hddf28bd83d4a73e6E', symObjAddr: 0x43B4, symBinAddr: 0x4052C, symSize: 0x100 }
  - { offset: 0xB259D, size: 0x8, addend: 0x0, symName: '__ZN42_$LT$$RF$T$u20$as$u20$core..fmt..Debug$GT$3fmt17h2b4b3f22ce4bee49E', symObjAddr: 0x7E4, symBinAddr: 0x3FA50, symSize: 0x8 }
  - { offset: 0xB25B1, size: 0x8, addend: 0x0, symName: '__ZN42_$LT$$RF$T$u20$as$u20$core..fmt..Debug$GT$3fmt17h567a63fd3c782be8E', symObjAddr: 0x7FC, symBinAddr: 0x3FA58, symSize: 0xC }
  - { offset: 0xB25D8, size: 0x8, addend: 0x0, symName: '__ZN42_$LT$$RF$T$u20$as$u20$core..fmt..Debug$GT$3fmt17h9c2ce363ea8dcdd6E', symObjAddr: 0x808, symBinAddr: 0x3FA64, symSize: 0x164 }
  - { offset: 0xB27FD, size: 0x8, addend: 0x0, symName: '__ZN42_$LT$$RF$T$u20$as$u20$core..fmt..Debug$GT$3fmt17ha3a50d16762be34eE', symObjAddr: 0x97C, symBinAddr: 0x3FBC8, symSize: 0x10 }
  - { offset: 0xB2824, size: 0x8, addend: 0x0, symName: '__ZN42_$LT$str$u20$as$u20$core..fmt..Display$GT$3fmt17hf7b0640df494d19dE', symObjAddr: 0x994, symBinAddr: 0x3FBD8, symSize: 0x14 }
  - { offset: 0xB284A, size: 0x8, addend: 0x0, symName: '__ZN43_$LT$char$u20$as$u20$core..fmt..Display$GT$3fmt17h69f073e2ae59c68fE', symObjAddr: 0x9DC, symBinAddr: 0x3FBEC, symSize: 0xD4 }
  - { offset: 0xB28BF, size: 0x8, addend: 0x0, symName: '__ZN44_$LT$$RF$T$u20$as$u20$core..fmt..Display$GT$3fmt17hbdfe33b02e140eaaE', symObjAddr: 0xAC0, symBinAddr: 0x3FCC0, symSize: 0x10 }
  - { offset: 0xB28F0, size: 0x8, addend: 0x0, symName: __ZN4core3fmt17pointer_fmt_inner17h876b3aac0450430cE, symObjAddr: 0xF8C, symBinAddr: 0x3FDC0, symSize: 0xB4 }
  - { offset: 0xB29C0, size: 0x8, addend: 0x0, symName: __ZN4core3fmt5Write9write_fmt17h1e83184835b6b465E, symObjAddr: 0x5D18, symBinAddr: 0x40958, symSize: 0x14 }
  - { offset: 0xB2A4D, size: 0x8, addend: 0x0, symName: __ZN4core3fmt5write17h8a52dffc4df6d016E, symObjAddr: 0x8660, symBinAddr: 0x4096C, symSize: 0x1B4 }
  - { offset: 0xB2CCB, size: 0x8, addend: 0x0, symName: __ZN4core3fmt9Formatter12pad_integral12write_prefix17h8540e58600a8d620E, symObjAddr: 0x9720, symBinAddr: 0x41278, symSize: 0x7C }
  - { offset: 0xB2D23, size: 0x8, addend: 0x0, symName: '__ZN59_$LT$core..fmt..Arguments$u20$as$u20$core..fmt..Display$GT$3fmt17hb7b02a08a820e227E', symObjAddr: 0x17A5C, symBinAddr: 0x43F3C, symSize: 0x10 }
  - { offset: 0xB2E74, size: 0x8, addend: 0x0, symName: __ZN4core6result13unwrap_failed17h74e6dfc470337e8fE, symObjAddr: 0x15124, symBinAddr: 0x49104, symSize: 0x48 }
  - { offset: 0xB3067, size: 0x8, addend: 0x0, symName: __ZN4core3str5count14do_count_chars17hfa41c3400f716407E, symObjAddr: 0x13188, symBinAddr: 0x42130, symSize: 0x718 }
  - { offset: 0xB3468, size: 0x8, addend: 0x0, symName: __ZN4core3str5count23char_count_general_case17h98131c11f985a4b2E, symObjAddr: 0x138A0, symBinAddr: 0x42848, symSize: 0x2A8 }
  - { offset: 0xB3511, size: 0x8, addend: 0x0, symName: __ZN4core3str16slice_error_fail17hfa6331de2d59316eE, symObjAddr: 0x12DD4, symBinAddr: 0x48FA8, symSize: 0xC }
  - { offset: 0xB352A, size: 0x8, addend: 0x0, symName: __ZN4core3str19slice_error_fail_rt17he10fa847ff1d6dbcE, symObjAddr: 0x12DFC, symBinAddr: 0x41ED0, symSize: 0x260 }
  - { offset: 0xB3667, size: 0x8, addend: 0x0, symName: __ZN4core3str7pattern11StrSearcher3new17h0e1f6acdaf8da818E, symObjAddr: 0x13B64, symBinAddr: 0x42AF0, symSize: 0x898 }
  - { offset: 0xB3925, size: 0x8, addend: 0x0, symName: __ZN4core3str8converts9from_utf817he9f0822f56a5cc24E, symObjAddr: 0x14670, symBinAddr: 0x43388, symSize: 0x274 }
  - { offset: 0xB3942, size: 0x8, addend: 0x0, symName: __ZN4core3str8converts9from_utf817he9f0822f56a5cc24E, symObjAddr: 0x14670, symBinAddr: 0x43388, symSize: 0x274 }
  - { offset: 0xB39C2, size: 0x8, addend: 0x0, symName: '__ZN87_$LT$core..str..lossy..Utf8Chunks$u20$as$u20$core..iter..traits..iterator..Iterator$GT$4next17ha0fc4a5921d75e86E', symObjAddr: 0x1D7A8, symBinAddr: 0x44264, symSize: 0x1C0 }
  - { offset: 0xB3BD7, size: 0x8, addend: 0x0, symName: __ZN4core3ffi5c_str4CStr19from_bytes_with_nul17hf744986151965e8bE, symObjAddr: 0xDAC, symBinAddr: 0x3FCD0, symSize: 0xF0 }
  - { offset: 0xB3BF5, size: 0x8, addend: 0x0, symName: __ZN4core3ffi5c_str4CStr19from_bytes_with_nul17hf744986151965e8bE, symObjAddr: 0xDAC, symBinAddr: 0x3FCD0, symSize: 0xF0 }
  - { offset: 0xB3D41, size: 0x8, addend: 0x0, symName: __ZN4core4cell22panic_already_borrowed17h82450002fb0f6e12E, symObjAddr: 0x148E4, symBinAddr: 0x48FB4, symSize: 0x30 }
  - { offset: 0xB3D8C, size: 0x8, addend: 0x0, symName: '__ZN65_$LT$core..cell..BorrowMutError$u20$as$u20$core..fmt..Display$GT$3fmt17h7a70aa4f106ac567E', symObjAddr: 0x19194, symBinAddr: 0x43F4C, symSize: 0x14 }
  - { offset: 0xB3DDB, size: 0x8, addend: 0x0, symName: __ZN4core7unicode12unicode_data15grapheme_extend11lookup_slow17hc505314b145fddb7E, symObjAddr: 0x15660, symBinAddr: 0x43AA8, symSize: 0x108 }
  - { offset: 0xB3FA7, size: 0x8, addend: 0x0, symName: __ZN4core7unicode9printable12is_printable17hf49ebfc81508a009E, symObjAddr: 0x15B7C, symBinAddr: 0x43BB0, symSize: 0x37C }
  - { offset: 0xB42B9, size: 0x8, addend: 0x0, symName: __ZN4core9panicking11panic_const23panic_const_div_by_zero17h78967d181699e063E, symObjAddr: 0x15EF8, symBinAddr: 0x4914C, symSize: 0x1C }
  - { offset: 0xB42D3, size: 0x8, addend: 0x0, symName: __ZN4core9panicking11panic_const23panic_const_rem_by_zero17h0a5afac2d947308bE, symObjAddr: 0x15F30, symBinAddr: 0x49168, symSize: 0x1C }
  - { offset: 0xB42ED, size: 0x8, addend: 0x0, symName: __ZN4core9panicking11panic_const24panic_const_add_overflow17h9a54dd2018fe28a5E, symObjAddr: 0x15F4C, symBinAddr: 0x49184, symSize: 0x1C }
  - { offset: 0xB4307, size: 0x8, addend: 0x0, symName: __ZN4core9panicking11panic_const24panic_const_sub_overflow17h4881deae0c1d7cedE, symObjAddr: 0x16010, symBinAddr: 0x491A0, symSize: 0x1C }
  - { offset: 0xB4322, size: 0x8, addend: 0x0, symName: __ZN4core9panicking13assert_failed17h03d286eacffdb44eE, symObjAddr: 0x16160, symBinAddr: 0x491BC, symSize: 0x28 }
  - { offset: 0xB433D, size: 0x8, addend: 0x0, symName: __ZN4core9panicking13assert_failed17h2e8acd2f0cd32091E, symObjAddr: 0x16188, symBinAddr: 0x491E4, symSize: 0x28 }
  - { offset: 0xB4358, size: 0x8, addend: 0x0, symName: __ZN4core9panicking13assert_failed17hc6912d5c8ae31599E, symObjAddr: 0x161B0, symBinAddr: 0x4920C, symSize: 0x28 }
  - { offset: 0xB4372, size: 0x8, addend: 0x0, symName: __ZN4core9panicking14panic_nounwind17h08cd4682ec06fdd2E, symObjAddr: 0x161D8, symBinAddr: 0x49234, symSize: 0x20 }
  - { offset: 0xB43A0, size: 0x8, addend: 0x0, symName: __ZN4core9panicking16panic_in_cleanup17h62fee25f13dd543aE, symObjAddr: 0x16234, symBinAddr: 0x49254, symSize: 0x18 }
  - { offset: 0xB43BA, size: 0x8, addend: 0x0, symName: __ZN4core9panicking18panic_bounds_check17h4d34bdab34d851beE, symObjAddr: 0x1624C, symBinAddr: 0x4926C, symSize: 0x38 }
  - { offset: 0xB43E8, size: 0x8, addend: 0x0, symName: __ZN4core9panicking18panic_nounwind_fmt17h8c81167db7c868a6E, symObjAddr: 0x16284, symBinAddr: 0x492A4, symSize: 0x30 }
  - { offset: 0xB442C, size: 0x8, addend: 0x0, symName: __ZN4core9panicking19assert_failed_inner17hd9d71f5fdbb02a84E, symObjAddr: 0x162B4, symBinAddr: 0x492D4, symSize: 0xBC }
  - { offset: 0xB4446, size: 0x8, addend: 0x0, symName: __ZN4core9panicking19panic_cannot_unwind17he03186bb60af78b0E, symObjAddr: 0x16370, symBinAddr: 0x49390, symSize: 0x18 }
  - { offset: 0xB4460, size: 0x8, addend: 0x0, symName: __ZN4core9panicking26panic_nounwind_nobacktrace17hdc754f5f6a967dc0E, symObjAddr: 0x16388, symBinAddr: 0x493A8, symSize: 0x20 }
  - { offset: 0xB448E, size: 0x8, addend: 0x0, symName: __ZN4core9panicking30panic_null_pointer_dereference17h8e4ef9d2b35570f1E, symObjAddr: 0x163A8, symBinAddr: 0x493C8, symSize: 0x1C }
  - { offset: 0xB44A8, size: 0x8, addend: 0x0, symName: __ZN4core9panicking36panic_misaligned_pointer_dereference17h8117d42e3ed7c531E, symObjAddr: 0x163F8, symBinAddr: 0x493E4, symSize: 0x3C }
  - { offset: 0xB44C2, size: 0x8, addend: 0x0, symName: __ZN4core9panicking5panic17hed7fda4ddae1f714E, symObjAddr: 0x16434, symBinAddr: 0x49420, symSize: 0x14 }
  - { offset: 0xB44F0, size: 0x8, addend: 0x0, symName: __ZN4core9panicking9panic_fmt17hc9b4228954207328E, symObjAddr: 0x16448, symBinAddr: 0x49434, symSize: 0x28 }
  - { offset: 0xB455E, size: 0x8, addend: 0x0, symName: _OUTLINED_FUNCTION_0, symObjAddr: 0x1D9CC, symBinAddr: 0x44424, symSize: 0x10 }
  - { offset: 0xB4576, size: 0x8, addend: 0x0, symName: _OUTLINED_FUNCTION_1, symObjAddr: 0x1D9DC, symBinAddr: 0x44434, symSize: 0x8 }
...
